(lp0
S"'10510ANTH651000','ANTH','CHS','SN0070','3','T6T7T8<br>',' ',' ','','',' '"
p1
aS"'10510ANTH653000','ANTH','CHS','SN0130','3','R6R7R8<br>',' ',' ','','',' '"
p2
aS"'10510ANTH653500','ANTH','CHS','SN0157','3','F6F7F8<br>',' ',' ','','',' '"
p3
aS"'10510ANTH654100','ANTH','CHS','SN0112','1','F5<br>',' ',' ','','Y',' '"
p4
aS"'10510ANTH663200','ANTH','CHS','AN0040','3','F2F3F4<br>',' ',' ','','',' '"
p5
aS"'10510ANTH674200','ANTH','CHS','NT0984','3','TaTbTc<br>',' ',' ','','',' '"
p6
aS"'10510ANTH674600','ANTH','CHS','NT2083','1','S3<br>','10',' ','','',' '"
p7
aS"'10510ANTH674700','ANTH','CHS','NT2617','3','W2W3W4<br>',' ',' ','','',' '"
p8
aS"'10510ANTH674800','ANTH','CHS','NT2618','3','R2R3R4<br>',' ',' ','','',' '"
p9
aS"'10510ANTH674900','ANTH','CHS','NT2627','3','R3R4Rn<br>',' ',' ','','',' '"
p10
aS"'10510ANTH700000','ANTH','CHS','SS0001','2',' ',' ',' ','','',' '"
p11
aS"'10510ANTH800000','ANTH','CHS','SS0002','0',' ',' ',' ','','',' '"
p12
aS"'10510ASTR510000','ASTR','SCI','AS0001','3','M7M8M9<br>',' ',' ','','',' '"
p13
aS"'10510ASTR591000','ASTR','SCI','LA0191','1','F7F8<br>',' ',' ','','',' '"
p14
aS"'10510ASTR600600','ASTR','SCI','NT2302','3','TnWnRn<br>',' ',' ','','',' '"
p15
aS"'10510ASTR610000','ASTR','SCI','AS0015','3','W7W8W9<br>','30',' ','','',' '"
p16
aS"'10510ASTR640000','ASTR','SCI','AS0006','3','T6T7T8<br>',' ',' ','','',' '"
p17
aS"'10510ASTR691000','ASTR','SCI','SS0001','2',' ',' ',' ','','',' '"
p18
aS"'10510ASTR992000','ASTR','SCI','SS0002','0',' ',' ',' ','','',' '"
p19
aS"'10510BME 500400','BME ','ENGI','SS0003','1','W3W4<br>',' ',' ','','',' '"
p20
aS"'10510BME 500800','BME ','ENGI','NT2383','3','M5M6M7<br>',' ',' ','','',' '"
p21
aS"'10510BME 500900','BME ','ENGI','CE0275','3','T2T3T4<br>',' ',' ','','',' '"
p22
aS"'10510BME 501200','BME ','ENGI','SS0001','2',' ',' ',' ','','',' '"
p23
aS"'10510BME 501800','BME ','ENGI','NT2046','3','T6T7T8<br>',' ',' ','','',' '"
p24
aS"'10510BME 501900','BME ','ENGI','NT2250','3','F6F7F8<br>',' ',' ','','',' '"
p25
aS"'10510BME 502100','BME ','ENGI','NT2017','3','TaTbTc<br>',' ',' ','','',' '"
p26
aS"'10510BME 502400','BME ','ENGI','NE0599','3','W5W6W7<br>',' ',' ','','',' '"
p27
aS"'10510BME 502600','BME ','ENGI','NT2466','2','MaMb<br>',' ',' ','','',' '"
p28
aS"'10510BME 502700','BME ','ENGI','NT2467','3','M2M3M4<br>',' ',' ','','',' '"
p29
aS"'10510BME 503600','BME ','ENGI','NT2624','3','R7R8R9<br>','12',' ','','',' '"
p30
aS"'10510BME 503700','BME ','ENGI','NT2625','3','F2F3F4<br>',' ',' ','','',' '"
p31
aS"'10510BMES111100','BMES','NUCL','NS0282','3','M7M8M9<br>','60',' ','','',' '"
p32
aS"'10510BMES211100','BMES','NUCL','EA0002','3','T7T8T9<br>','85',' ','','Y',' '"
p33
aS"'10510BMES212100','BMES','NUCL','MA0018','3','M3M4W2<br>','60',' ','','Y',' '"
p34
aS"'10510BMES213300','BMES','NUCL','EE0016','3','T3T4R4<br>',' ',' ','','',' '"
p35
aS"'10510BMES215100','BMES','NUCL','CE0001','3','W3W4F3F4<br>',' ',' ','','',' '"
p36
aS"'10510BMES312101','BMES','NUCL','NT1177','2','M5M6M7M8<br>','25',' ','','',' '"
p37
aS"'10510BMES312102','BMES','NUCL','NT1177','2','R5R6R7R8<br>','25',' ','','',' '"
p38
aS"'10510BMES316100','BMES','NUCL','CH0015','3','T3T4R3R4<br>',' ',' ','','',' '"
p39
aS"'10510BMES318100','BMES','NUCL','NT0587','1',' ',' ',' ','','',' '"
p40
aS"'10510BMES323100','BMES','NUCL','CE0049','3','M1M2R2<br>',' ',' ','','',' '"
p41
aS"'10510BMES332100','BMES','NUCL','CH0115','3','W3W4F3F4<br>',' ',' ','','',' '"
p42
aS"'10510BMES337100','BMES','NUCL','CE0003','3','M3M4W1W2<br>',' ',' ','','Y',' '"
p43
aS"'10510BMES343100','BMES','NUCL','NT0922','3','W2W3W4<br>',' ',' ','','',' '"
p44
aS"'10510BMES344200','BMES','NUCL','EA0025','3','T1T2F1F2<br>',' ',' ','','Y',' '"
p45
aS"'10510BMES411100','BMES','NUCL','NE0314','1','W6<br>','24',' ','','',' '"
p46
aS"'10510BMES418100','BMES','NUCL','NS0148','1',' ',' ',' ','','',' '"
p47
aS"'10510BMES420200','BMES','NUCL','NS0003','3','T2T3T4<br>',' ',' ','','',' '"
p48
aS"'10510BMES423100','BMES','NUCL','MB0038','3','M7M8M9<br>',' ',' ','','',' '"
p49
aS"'10510BMES433100','BMES','NUCL','NS0274','2','R7R8<br>','92','*1','3','',' '"
p50
aS"'10510BMES439400','BMES','NUCL','NT0595','3','WaWbWc<br>',' ',' ','','',' '"
p51
aS"'10510BMES441200','BMES','NUCL','NS0056','3','T6T7T8<br>',' ',' ','','',' '"
p52
aS"'10510BMES442100','BMES','NUCL','NT0923','3','M5M6R5<br>',' ',' ','','',' '"
p53
aS"'10510BMES511101','BMES','NUCL','SS0003','1','W6<br>',' ',' ','','',' '"
p54
aS"'10510BMES511102','BMES','NUCL','SS0003','1','W6<br>',' ',' ','','',' '"
p55
aS"'10510BMES511103','BMES','NUCL','SS0003','1','W6<br>',' ',' ','','',' '"
p56
aS"'10510BMES512100','BMES','NUCL','NT1153','1',' ',' ',' ','','',' '"
p57
aS"'10510BMES520100','BMES','NUCL','NS0247','3','W2W3W4<br>',' ',' ','','',' '"
p58
aS"'10510BMES523100','BMES','NUCL','NS0128','3','R6R7R8<br>',' ',' ','','',' '"
p59
aS"'10510BMES523300','BMES','NUCL','NT2050','3','F2F3F4<br>','50',' ','','',' '"
p60
aS"'10510BMES525100','BMES','NUCL','NS0279','3','R3R4F3<br>',' ',' ','','',' '"
p61
aS"'10510BMES529100','BMES','NUCL','NS0237','3','R6R7R8<br>',' ',' ','','',' '"
p62
aS"'10510BMES531100','BMES','NUCL','NS0273','3','W2W3W4<br>',' ',' ','','',' '"
p63
aS"'10510BMES535100','BMES','NUCL','NS0079','3','R5R6R7<br>',' ',' ','','',' '"
p64
aS"'10510BMES539100','BMES','NUCL','CH0051','3','R8R9F7F8<br>',' ',' ','','',' '"
p65
aS"'10510BMES546500','BMES','NUCL','WW1662','3','M2M3M4<br>',' ',' ','','',' '"
p66
aS"'10510BMES549100','BMES','NUCL','NT0924','3','R6R7R8<br>',' ',' ','','',' '"
p67
aS"'10510BMES610200','BMES','NUCL','SS0001','2',' ',' ',' ','','',' '"
p68
aS"'10510BMES611101','BMES','NUCL','SS0003','0','W5<br>',' ',' ','','',' '"
p69
aS"'10510BMES611102','BMES','NUCL','SS0003','0','W5<br>',' ',' ','','',' '"
p70
aS"'10510BMES611103','BMES','NUCL','SS0003','0','W5<br>',' ',' ','','',' '"
p71
aS"'10510BMES622100','BMES','NUCL','RB0001','3','R2R3R4<br>',' ',' ','','',' '"
p72
aS"'10510BMES634100','BMES','NUCL','NS0264','3','T2T3T4<br>',' ',' ','','',' '"
p73
aS"'10510BMES645100','BMES','NUCL','BM0020','3','R2R3R4<br>',' ',' ','','',' '"
p74
aS"'10510BMES711101','BMES','NUCL','NE2628','1','W6W7W8<br>',' ',' ','','',' '"
p75
aS"'10510BMES711102','BMES','NUCL','NE2628','1','W6W7W8<br>',' ',' ','','',' '"
p76
aS"'10510BMES711103','BMES','NUCL','NE2628','1','W6W7W8<br>',' ',' ','','',' '"
p77
aS"'10510BMES712100','BMES','NUCL','NT1154','1',' ',' ',' ','','',' '"
p78
aS"'10510BMES810100','BMES','NUCL','SS0002','0',' ',' ',' ','','',' '"
p79
aS"'10510CL  101001','CL  ','CHS','CF0343','2','M5M6<br>','25',' ','1','','CF'"
p80
aS"'10510CL  101002','CL  ','CHS','CF0343','2','M5M6<br>','25',' ','1','','CF'"
p81
aS"'10510CL  101003','CL  ','CHS','CF0343','2','M5M6<br>','25',' ','1','','CF'"
p82
aS"'10510CL  101004','CL  ','CHS','CF0343','2','M5M6<br>','25',' ','1','','CF'"
p83
aS"'10510CL  101005','CL  ','CHS','CF0343','2','M5M6<br>','25',' ','1','','CF'"
p84
aS"'10510CL  101006','CL  ','CHS','CF0343','2','T5T6<br>','25',' ','1','','CF'"
p85
aS"'10510CL  101007','CL  ','CHS','CF0343','2','T5T6<br>','25',' ','1','','CF'"
p86
aS"'10510CL  101008','CL  ','CHS','CF0343','2','T5T6<br>','25',' ','1','','CF'"
p87
aS"'10510CL  101009','CL  ','CHS','CF0343','2','T5T6<br>','25',' ','1','','CF'"
p88
aS"'10510CL  101010','CL  ','CHS','CF0343','2','T5T6<br>','25',' ','1','','CF'"
p89
aS"'10510CL  101011','CL  ','CHS','CF0343','2','T5T6<br>','25',' ','1','','CF'"
p90
aS"'10510CL  101012','CL  ','CHS','CF0343','2','T5T6<br>','25',' ','1','','CF'"
p91
aS"'10510CL  101015','CL  ','CHS','CF0343','2','W5W6<br>','25',' ','1','','CF'"
p92
aS"'10510CL  101016','CL  ','CHS','CF0343','2','W5W6<br>','25',' ','1','','CF'"
p93
aS"'10510CL  101017','CL  ','CHS','CF0343','2','W5W6<br>','25',' ','1','','CF'"
p94
aS"'10510CL  101018','CL  ','CHS','CF0343','2','W5W6<br>','25',' ','1','','CF'"
p95
aS"'10510CL  101019','CL  ','CHS','CF0343','2','W5W6<br>','25',' ','1','','CF'"
p96
aS"'10510CL  101020','CL  ','CHS','CF0343','2','R5R6<br>','25',' ','1','','CF'"
p97
aS"'10510CL  101021','CL  ','CHS','CF0343','2','R5R6<br>','25',' ','1','','CF'"
p98
aS"'10510CL  101022','CL  ','CHS','CF0343','2','R5R6<br>','25',' ','1','','CF'"
p99
aS"'10510CL  101023','CL  ','CHS','CF0343','2','R5R6<br>','25',' ','1','','CF'"
p100
aS"'10510CL  101024','CL  ','CHS','CF0343','2','R5R6<br>','25',' ','1','','CF'"
p101
aS"'10510CL  101025','CL  ','CHS','CF0343','2','R5R6<br>','25',' ','1','','CF'"
p102
aS"'10510CL  101026','CL  ','CHS','CF0343','2','R5R6<br>','25',' ','1','','CF'"
p103
aS"'10510CL  101027','CL  ','CHS','CF0343','2','R5R6<br>','25',' ','1','','CF'"
p104
aS"'10510CL  101028','CL  ','CHS','CF0343','2','R7R8<br>','25',' ','1','','CF'"
p105
aS"'10510CL  101029','CL  ','CHS','CF0343','2','F5F6<br>','25',' ','1','','CF'"
p106
aS"'10510CL  101030','CL  ','CHS','CF0343','2','F5F6<br>','25',' ','1','','CF'"
p107
aS"'10510CL  101031','CL  ','CHS','CF0343','2','F5F6<br>','25',' ','1','','CF'"
p108
aS"'10510CL  101032','CL  ','CHS','CF0343','2','F5F6<br>','25',' ','1','','CF'"
p109
aS"'10510CL  101033','CL  ','CHS','CF0343','2','F5F6<br>','25',' ','1','','CF'"
p110
aS"'10510CHE 116000','CHE ','ENGI','CE0088','1','W9<br>','67',' ','','',' '"
p111
aS"'10510CHE 140200','CHE ','ENGI','XA0193','1','R4<br>',' ',' ','','',' '"
p112
aS"'10510CHE 211001','CHE ','ENGI','EA0002','3','T3T4R3<br>','35',' ','','Y',' '"
p113
aS"'10510CHE 211002','CHE ','ENGI','EA0002','3','T3T4R3<br>','35',' ','','Y',' '"
p114
aS"'10510CHE 241001','CHE ','ENGI','CE0003','3','M3M4W1W2<br>','0',' ','','Y',' '"
p115
aS"'10510CHE 241002','CHE ','ENGI','CE0003','3','M3M4W1W2<br>','0',' ','','Y',' '"
p116
aS"'10510CHE 301000','CHE ','ENGI','CE0299','2','M7M8<br>','67',' ','','',' '"
p117
aS"'10510CHE 303001','CHE ','ENGI','CE0005','3','T3T4R4<br>','0',' ','','',' '"
p118
aS"'10510CHE 303002','CHE ','ENGI','CE0005','3','T3T4R4<br>','0',' ','','',' '"
p119
aS"'10510CHE 307001','CHE ','ENGI','CE0174','3','W3W4F4<br>','0',' ','','',' '"
p120
aS"'10510CHE 307002','CHE ','ENGI','CE0174','3','W3W4F4<br>','0',' ','','',' '"
p121
aS"'10510CHE 309001','CHE ','ENGI','CE0182','3','W6W7W8W9<br>','0',' ','','Y',' '"
p122
aS"'10510CHE 309002','CHE ','ENGI','CE0182','3','R6R7R8R9<br>','0',' ','','Y',' '"
p123
aS"'10510CHE 352001','CHE ','ENGI','CE0183','3','M3M4W1W2<br>','35',' ','','Y',' '"
p124
aS"'10510CHE 352002','CHE ','ENGI','CE0183','3','M3M4W1W2<br>','35',' ','','Y',' '"
p125
aS"'10510CHE 371000','CHE ','ENGI','CE0224','2','W7W8<br>',' ',' ','','',' '"
p126
aS"'10510CHE 412000','CHE ','ENGI','MS0022','3','T1T2R1R2<br>',' ',' ','','',' '"
p127
aS"'10510CHE 413000','CHE ','ENGI','NT1181','2','T3T4<br>','30',' ','','',' '"
p128
aS"'10510CHE 415001','CHE ','ENGI','CE0057','3','F7F8F9<br>','0',' ','','Y',' '"
p129
aS"'10510CHE 415002','CHE ','ENGI','CE0057','3','F7F8F9<br>','0',' ','','Y',' '"
p130
aS"'10510CHE 415003','CHE ','ENGI','CE0057','3','F7F8F9<br>','0',' ','','Y',' '"
p131
aS"'10510CHE 421001','CHE ','ENGI','CE0011','2','T6T7T8T9<br>','0',' ','','',' '"
p132
aS"'10510CHE 421002','CHE ','ENGI','CE0011','2','R6R7R8R9<br>','0',' ','','',' '"
p133
aS"'10510CHE 453000','CHE ','ENGI','CE0305','3','F2F3F4<br>','50','*7','3','',' '"
p134
aS"'10510CHE 495000','CHE ','ENGI','NT0587','1',' ',' ',' ','','',' '"
p135
aS"'10510CHE 496000','CHE ','ENGI','NT0588','1',' ',' ',' ','','',' '"
p136
aS"'10510CHE 500100','CHE ','ENGI','CE0294','3','M7M8M9<br>',' ',' ','','',' '"
p137
aS"'10510CHE 501000','CHE ','ENGI','CE0017','3','T2T3T4<br>',' ',' ','','',' '"
p138
aS"'10510CHE 502000','CHE ','ENGI','NT2069','3','T6T7T8<br>',' ',' ','','',' '"
p139
aS"'10510CHE 503000','CHE ','ENGI','CE0075','3','R2R3R4<br>','40',' ','','',' '"
p140
aS"'10510CHE 507000','CHE ','ENGI','CE0019','3','F2F3F4<br>',' ',' ','','',' '"
p141
aS"'10510CHE 509000','CHE ','ENGI','SS0003','1','W7W8<br>','165',' ','','',' '"
p142
aS"'10510CHE 512200','CHE ','ENGI','NT0541','2','R7R8<br>','50',' ','','',' '"
p143
aS"'10510CHE 512600','CHE ','ENGI','NT2052','3','T6T7T8<br>','25',' ','','',' '"
p144
aS"'10510CHE 512800','CHE ','ENGI','NT2162','3','F2F3F4<br>',' ',' ','','',' '"
p145
aS"'10510CHE 517000','CHE ','ENGI','CE0076','3','W2W3W4<br>',' ',' ','','',' '"
p146
aS"'10510CHE 520000','CHE ','ENGI','SS0001','2',' ',' ',' ','','',' '"
p147
aS"'10510CHE 541200','CHE ','ENGI','CE0275','3','T2T3T4<br>',' ',' ','','',' '"
p148
aS"'10510CHE 545300','CHE ','ENGI','CE0282','3','T5T6T7<br>','30',' ','','',' '"
p149
aS"'10510CHE 556000','CHE ','ENGI','CE0073','3','R2R3R4<br>','25',' ','','',' '"
p150
aS"'10510CHE 579700','CHE ','ENGI','NT2344','2','M7M8<br>',' ',' ','','',' '"
p151
aS"'10510CHE 703000','CHE ','ENGI','SS0002','0',' ',' ',' ','','',' '"
p152
aS"'10510CHEM101001','CHEM','SCI','CH0001','3','M3M4W1W2<br>','115',' ','','',' '"
p153
aS"'10510CHEM101002','CHEM','SCI','CH0001','3','W3W4F3F4<br>','157',' ','','',' '"
p154
aS"'10510CHEM101003','CHEM','SCI','CH0001','3','T5T6F3F4<br>','150',' ','','',' '"
p155
aS"'10510CHEM101004','CHEM','SCI','CH0001','3','M3M4W1W2<br>','130',' ','','',' '"
p156
aS"'10510CHEM101005','CHEM','SCI','CH0001','3','M3M4W1W2<br>','140',' ','','',' '"
p157
aS"'10510CHEM103001','CHEM','SCI','CH0002','1','M5M6M7M8<br>','55',' ','','',' '"
p158
aS"'10510CHEM103002','CHEM','SCI','CH0002','1','M5M6M7M8<br>','55',' ','','',' '"
p159
aS"'10510CHEM103003','CHEM','SCI','CH0002','1','T5T6T7T8<br>','55',' ','','',' '"
p160
aS"'10510CHEM103004','CHEM','SCI','CH0002','1','T5T6T7T8<br>','55',' ','','',' '"
p161
aS"'10510CHEM103005','CHEM','SCI','CH0002','1','W5W6W7W8<br>','61',' ','','',' '"
p162
aS"'10510CHEM103006','CHEM','SCI','CH0002','1','R5R6R7R8<br>','55',' ','','',' '"
p163
aS"'10510CHEM103007','CHEM','SCI','CH0002','1','R5R6R7R8<br>','55',' ','','',' '"
p164
aS"'10510CHEM103008','CHEM','SCI','CH0002','1','F5F6F7F8<br>','55',' ','','',' '"
p165
aS"'10510CHEM103009','CHEM','SCI','CH0002','1','F5F6F7F8<br>','55',' ','','',' '"
p166
aS"'10510CHEM103010','CHEM','SCI','CH0002','1','W1W2W3W4<br>','65',' ','','',' '"
p167
aS"'10510CHEM103011','CHEM','SCI','CH0002','1','W1W2W3W4<br>','65',' ','','',' '"
p168
aS"'10510CHEM221001','CHEM','SCI','CE0001','3','T1T2F1F2<br>','100',' ','','Y',' '"
p169
aS"'10510CHEM221002','CHEM','SCI','CE0001','3','W3W4F3F4<br>','180',' ','','Y',' '"
p170
aS"'10510CHEM223001','CHEM','SCI','CE0002','2','M5M6<br>M7M8<br>','36',' ','','Y',' '"
p171
aS"'10510CHEM223002','CHEM','SCI','CE0002','2','W5W6<br>W7W8<br>','36',' ','','Y',' '"
p172
aS"'10510CHEM223003','CHEM','SCI','CE0002','2','R5R6<br>R7R8<br>','33',' ','','Y',' '"
p173
aS"'10510CHEM223004','CHEM','SCI','CE0002','2','F5F6<br>F7F8<br>','36',' ','','Y',' '"
p174
aS"'10510CHEM241001','CHEM','SCI','CE0003','3','W3W4F3F4<br>','100',' ','','Y',' '"
p175
aS"'10510CHEM293000','CHEM','SCI','CH0241','3','M1M2R1R2<br>',' ',' ','','',' '"
p176
aS"'10510CHEM311000','CHEM','SCI','CH0008','3','T3T4R3R4<br>','100',' ','','Y',' '"
p177
aS"'10510CHEM313001','CHEM','SCI','CH0009','2','F1F2F3F4<br>','30',' ','','',' '"
p178
aS"'10510CHEM313002','CHEM','SCI','CH0009','2','W5W6W7W8<br>','30',' ','','',' '"
p179
aS"'10510CHEM328000','CHEM','SCI','CH0282','2','M5M6<br>',' ',' ','','',' '"
p180
aS"'10510CHEM331000','CHEM','SCI','CH0010','3','M1M2R1R2<br>','100',' ','','Y',' '"
p181
aS"'10510CHEM337000','CHEM','SCI','CH0146','2','F5F6<br>',' ',' ','','',' '"
p182
aS"'10510CHEM343000','CHEM','SCI','CH0011','3','M3M4W2<br>',' ',' ','','',' '"
p183
aS"'10510CHEM345001','CHEM','SCI','CH0126','2','M5M6M7M8<br>','30',' ','','Y',' '"
p184
aS"'10510CHEM345002','CHEM','SCI','CH0126','2','W5W6W7W8<br>','30',' ','','Y',' '"
p185
aS"'10510CHEM345003','CHEM','SCI','CH0126','2','R5R6R7R8<br>','30',' ','','Y',' '"
p186
aS"'10510CHEM345004','CHEM','SCI','CH0126','2','F5F6F7F8<br>','30',' ','','Y',' '"
p187
aS"'10510CHEM461000','CHEM','SCI','CH0117','1','R5R6<br>',' ',' ','','',' '"
p188
aS"'10510CHEM462000','CHEM','SCI','CH0150','1','R5R6<br>','32',' ','','',' '"
p189
aS"'10510CHEM465000','CHEM','SCI','SS0011','1','W6W7W8<br>',' ',' ','','',' '"
p190
aS"'10510CHEM480000','CHEM','SCI','NT0587','3','S2S3S4<br>',' ',' ','','',' '"
p191
aS"'10510CHEM500000','CHEM','SCI','CH0295','0',' ',' ',' ','','',' '"
p192
aS"'10510CHEM501300','CHEM','SCI','CH0253','3','R2R3R4<br>',' ',' ','','',' '"
p193
aS"'10510CHEM501500','CHEM','SCI','NE0210','2','R7R8<br>','50',' ','','',' '"
p194
aS"'10510CHEM503000','CHEM','SCI','CH0248','3','T2W3W4<br>',' ',' ','','',' '"
p195
aS"'10510CHEM505000','CHEM','SCI','CH0296','3','R2R3R4<br>',' ',' ','','',' '"
p196
aS"'10510CHEM508500','CHEM','SCI','CH0090','2','F9FaFb<br>','12',' ','','',' '"
p197
aS"'10510CHEM509500','CHEM','SCI','CH0285','3','T3T4W3<br>',' ',' ','','',' '"
p198
aS"'10510CHEM540000','CHEM','SCI','CH0027','3','T2F3F4<br>','60',' ','','',' '"
p199
aS"'10510CHEM541000','CHEM','SCI','CH0041','3','F2F3F4<br>',' ',' ','','',' '"
p200
aS"'10510CHEM543000','CHEM','SCI','CE0262','3','R2R3R4<br>',' ',' ','','',' '"
p201
aS"'10510CHEM545000','CHEM','SCI','NS0166','3','W2R3R4<br>',' ',' ','','',' '"
p202
aS"'10510CHEM546000','CHEM','SCI','CH0048','3','M5M6M7<br>',' ',' ','','',' '"
p203
aS"'10510CHEM553400','CHEM','SCI','CH0212','2','S3S4<br>',' ',' ','','',' '"
p204
aS"'10510CHEM561000','CHEM','SCI','SS0062','2','T7T8<br>',' ',' ','','',' '"
p205
aS"'10510CHEM563000','CHEM','SCI','SS0063','2','T7T8<br>',' ',' ','','',' '"
p206
aS"'10510CHEM565000','CHEM','SCI','SS0012','2','T7T8<br>',' ',' ','','',' '"
p207
aS"'10510CHEM567000','CHEM','SCI','SS0009','2','T7T8<br>',' ',' ','','',' '"
p208
aS"'10510CHEM570000','CHEM','SCI','SS0011','0','W6W7W8<br>',' ',' ','','',' '"
p209
aS"'10510CHEM572000','CHEM','SCI','CH0070','3','T5T6W4<br>',' ',' ','','',' '"
p210
aS"'10510CHEM580000','CHEM','SCI','CH0228','3','M2M3M4<br>',' ',' ','','',' '"
p211
aS"'10510CHEM581000','CHEM','SCI','SS0001','2',' ',' ',' ','','',' '"
p212
aS"'10510CHEM598000','CHEM','SCI','CH0271','3','M5T3T4<br>',' ',' ','','',' '"
p213
aS"'10510CHEM600000','CHEM','SCI','NT0654','1',' ',' ',' ','','',' '"
p214
aS"'10510CHEM622000','CHEM','SCI','CH0056','3','M3M4W2<br>',' ',' ','','',' '"
p215
aS"'10510CHEM623000','CHEM','SCI','CH0024','3','M2W3W4<br>',' ',' ','','',' '"
p216
aS"'10510CHEM650000','CHEM','SCI','CH0212','2','S3S4<br>',' ',' ','','',' '"
p217
aS"'10510CHEM661000','CHEM','SCI','SS0062','1','T9Ta<br>',' ',' ','','',' '"
p218
aS"'10510CHEM665000','CHEM','SCI','SS0012','1','T9Ta<br>',' ',' ','','',' '"
p219
aS"'10510CHEM667000','CHEM','SCI','SS0009','1','T9Ta<br>',' ',' ','','',' '"
p220
aS"'10510CHEM669000','CHEM','SCI','SS0063','1','T9Ta<br>',' ',' ','','',' '"
p221
aS"'10510CHEM681000','CHEM','SCI','SS0002','0',' ',' ',' ','','',' '"
p222
aS"'10510CL  101001','CL  ','CHS','CF0343','2','M5M6<br>','25',' ','1','','CF'"
p223
aS"'10510CL  101002','CL  ','CHS','CF0343','2','M5M6<br>','25',' ','1','','CF'"
p224
aS"'10510CL  101003','CL  ','CHS','CF0343','2','M5M6<br>','25',' ','1','','CF'"
p225
aS"'10510CL  101004','CL  ','CHS','CF0343','2','M5M6<br>','25',' ','1','','CF'"
p226
aS"'10510CL  101005','CL  ','CHS','CF0343','2','M5M6<br>','25',' ','1','','CF'"
p227
aS"'10510CL  101006','CL  ','CHS','CF0343','2','T5T6<br>','25',' ','1','','CF'"
p228
aS"'10510CL  101007','CL  ','CHS','CF0343','2','T5T6<br>','25',' ','1','','CF'"
p229
aS"'10510CL  101008','CL  ','CHS','CF0343','2','T5T6<br>','25',' ','1','','CF'"
p230
aS"'10510CL  101009','CL  ','CHS','CF0343','2','T5T6<br>','25',' ','1','','CF'"
p231
aS"'10510CL  101010','CL  ','CHS','CF0343','2','T5T6<br>','25',' ','1','','CF'"
p232
aS"'10510CL  101011','CL  ','CHS','CF0343','2','T5T6<br>','25',' ','1','','CF'"
p233
aS"'10510CL  101012','CL  ','CHS','CF0343','2','T5T6<br>','25',' ','1','','CF'"
p234
aS"'10510CL  101015','CL  ','CHS','CF0343','2','W5W6<br>','25',' ','1','','CF'"
p235
aS"'10510CL  101016','CL  ','CHS','CF0343','2','W5W6<br>','25',' ','1','','CF'"
p236
aS"'10510CL  101017','CL  ','CHS','CF0343','2','W5W6<br>','25',' ','1','','CF'"
p237
aS"'10510CL  101018','CL  ','CHS','CF0343','2','W5W6<br>','25',' ','1','','CF'"
p238
aS"'10510CL  101019','CL  ','CHS','CF0343','2','W5W6<br>','25',' ','1','','CF'"
p239
aS"'10510CL  101020','CL  ','CHS','CF0343','2','R5R6<br>','25',' ','1','','CF'"
p240
aS"'10510CL  101021','CL  ','CHS','CF0343','2','R5R6<br>','25',' ','1','','CF'"
p241
aS"'10510CL  101022','CL  ','CHS','CF0343','2','R5R6<br>','25',' ','1','','CF'"
p242
aS"'10510CL  101023','CL  ','CHS','CF0343','2','R5R6<br>','25',' ','1','','CF'"
p243
aS"'10510CL  101024','CL  ','CHS','CF0343','2','R5R6<br>','25',' ','1','','CF'"
p244
aS"'10510CL  101025','CL  ','CHS','CF0343','2','R5R6<br>','25',' ','1','','CF'"
p245
aS"'10510CL  101026','CL  ','CHS','CF0343','2','R5R6<br>','25',' ','1','','CF'"
p246
aS"'10510CL  101027','CL  ','CHS','CF0343','2','R5R6<br>','25',' ','1','','CF'"
p247
aS"'10510CL  101028','CL  ','CHS','CF0343','2','R7R8<br>','25',' ','1','','CF'"
p248
aS"'10510CL  101029','CL  ','CHS','CF0343','2','F5F6<br>','25',' ','1','','CF'"
p249
aS"'10510CL  101030','CL  ','CHS','CF0343','2','F5F6<br>','25',' ','1','','CF'"
p250
aS"'10510CL  101031','CL  ','CHS','CF0343','2','F5F6<br>','25',' ','1','','CF'"
p251
aS"'10510CL  101032','CL  ','CHS','CF0343','2','F5F6<br>','25',' ','1','','CF'"
p252
aS"'10510CL  101033','CL  ','CHS','CF0343','2','F5F6<br>','25',' ','1','','CF'"
p253
aS"'10510CL  110101','CL  ','CHS','CL0478','3','RnR5R6<br>','15',' ','','',' '"
p254
aS"'10510CL  110601','CL  ','CHS','CL0031','3','W3W4Wn<br>',' ',' ','','',' '"
p255
aS"'10510CL  110700','CL  ','CHS','CL0375','3','T7T8T9<br>','60',' ','','',' '"
p256
aS"'10510CL  111300','CL  ','CHS','CL0551','3','R7R8R9<br>',' ',' ','','',' '"
p257
aS"'10510CL  120100','CL  ','CHS','CL0002','3','F3F4Fn<br>','70',' ','','',' '"
p258
aS"'10510CL  162900','CL  ','CHS','CL0517','3','T2T3T4<br>','35',' ','','',' '"
p259
aS"'10510CL  170600','CL  ','CHS','CL0526','3','R7R8R9<br>','15',' ','','',' '"
p260
aS"'10510CL  210300','CL  ','CHS','CL0204','3','R2R3R4<br>',' ',' ','','',' '"
p261
aS"'10510CL  210400','CL  ','CHS','CL0104','3','T2T3T4<br>',' ',' ','','',' '"
p262
aS"'10510CL  210600','CL  ','CHS','CL0032','3','W2W3W4<br>',' ',' ','','',' '"
p263
aS"'10510CL  210700','CL  ','CHS','CL0209','3','W3W4Wn<br>',' ',' ','','',' '"
p264
aS"'10510CL  210900','CL  ','CHS','CL0681','3','T7T8T9<br>','50',' ','','',' '"
p265
aS"'10510CL  212400','CL  ','CHS','CL0736','3','M3M4Mn<br>',' ',' ','','',' '"
p266
aS"'10510CL  221700','CL  ','CHS','NT1397','3','TnT5T6<br>','35',' ','','',' '"
p267
aS"'10510CL  230000','CL  ','CHS','NT0963','3','MnM5M6<br>',' ',' ','','',' '"
p268
aS"'10510CL  260000','CL  ','CHS','NT2339','2','R3R4<br>','50',' ','','Y',' '"
p269
aS"'10510CL  292000','CL  ','CHS','NT2357','2','W7W8<br>','20',' ','','',' '"
p270
aS"'10510CL  310100','CL  ','CHS','CL0011','3','M7M8M9<br>','60',' ','','',' '"
p271
aS"'10510CL  330900','CL  ','CHS','CL0051','3','T7T8T9<br>','35',' ','','',' '"
p272
aS"'10510CL  331100','CL  ','CHS','NT1267','3','WnW5W6<br>',' ',' ','','',' '"
p273
aS"'10510CL  332600','CL  ','CHS','NT2646','3','R7R8R9<br>','35',' ','','',' '"
p274
aS"'10510CL  335800','CL  ','CHS','NT1398','3','F5F6F7<br>',' ',' ','','',' '"
p275
aS"'10510CL  350400','CL  ','CHS','NT2648','3','M7M8M9<br>',' ',' ','','',' '"
p276
aS"'10510CL  360000','CL  ','CHS','NT2080','3','TnT5T6<br>','40',' ','','',' '"
p277
aS"'10510CL  360300','CL  ','CHS','NT2647','3','F5F6F7<br>',' ',' ','','',' '"
p278
aS"'10510CL  370000','CL  ','CHS','FL0380','3','W3W4Wn<br>','40',' ','','',' '"
p279
aS"'10510CL  371400','CL  ','CHS','TMP515','3','M3M4Mn<br>',' ',' ','','',' '"
p280
aS"'10510CL  380500','CL  ','CHS','NT1025','3','W7W8W9<br>',' ',' ','','',' '"
p281
aS"'10510CL  410100','CL  ','CHS','CL0025','3','M7M8M9<br>',' ',' ','','',' '"
p282
aS"'10510CL  430300','CL  ','CHS','NT1443','3','W7W8W9<br>','35',' ','','',' '"
p283
aS"'10510CL  450400','CL  ','CHS','NT1780','3','F3F4Fn<br>','35',' ','','',' '"
p284
aS"'10510CL  461100','CL  ','CHS','NT2140','2','T3T4<br>','16',' ','','',' '"
p285
aS"'10510CL  461200','CL  ','CHS','NT2141','1','Tn<br>','16',' ','','',' '"
p286
aS"'10510CL  461800','CL  ','CHS','NT2652','3','F5F6F7<br>','30',' ','','',' '"
p287
aS"'10510CL  482000','CL  ','CHS','TMP528','1','M3M4Mn<br>','30',' ','','',' '"
p288
aS"'10510CL  490900','CL  ','CHS','CL0705','3','R3R4Rn<br>','50','*7','3','',' '"
p289
aS"'10510CL  492100','CL  ','CHS','CL0702','3','R7R8R9<br>','40',' ','','',' '"
p290
aS"'10510CL  492900','CL  ','CHS','NT2651','3','F3F4Fn<br>','50',' ','','',' '"
p291
aS"'10510CL  502400','CL  ','CHS','WW1952','3','M3M4Mn<br>',' ',' ','','',' '"
p292
aS"'10510CL  515300','CL  ','CHS','NT2658','3','W7W8W9<br>',' ',' ','','',' '"
p293
aS"'10510CL  523200','CL  ','CHS','NT2653','3','R3R4Rn<br>',' ',' ','','',' '"
p294
aS"'10510CL  533600','CL  ','CHS','NT2657','3','WnW5W6<br>',' ',' ','','',' '"
p295
aS"'10510CL  534000','CL  ','CHS','NT2659','3','R7R8R9<br>',' ',' ','','',' '"
p296
aS"'10510CL  560500','CL  ','CHS','NT2654','3','M7M8M9<br>',' ',' ','','',' '"
p297
aS"'10510CL  560700','CL  ','CHS','NT2655','3','T6T7T8<br>',' ',' ','','',' '"
p298
aS"'10510CL  571900','CL  ','CHS','TMP516','3','R6R7R8<br>',' ',' ','','',' '"
p299
aS"'10510CL  580400','CL  ','CHS','NT2656','3','F2F3F4<br>',' ',' ','','',' '"
p300
aS"'10510CL  600100','CL  ','CHS','SS0001','2',' ',' ',' ','','',' '"
p301
aS"'10510CL  700100','CL  ','CHS','SS0002','0',' ',' ',' ','','',' '"
p302
aS"'10510CLC 100101','CLC ','','NT0090','2','M3M4<br>','15',' ','','',' '"
p303
aS"'10510CLC 100102','CLC ','','NT0090','2','M5M6<br>','15',' ','','',' '"
p304
aS"'10510CLC 100103','CLC ','','NT0090','2','MaMb<br>','20',' ','','',' '"
p305
aS"'10510CLC 100105','CLC ','','NT0090','2','WaWb<br>','20',' ','','',' '"
p306
aS"'10510CLC 100106','CLC ','','LG0040','4','M3M4W3W4<br>','15',' ','','',' '"
p307
aS"'10510CLC 100107','CLC ','','LG0040','4','M7M8W7W8<br>','15',' ','','',' '"
p308
aS"'10510CLC 100108','CLC ','','LG0040','4','T5T6R5R6<br>','15',' ','','',' '"
p309
aS"'10510CLC 100109','CLC ','','NT0090','2','R7R8<br>','15',' ','','',' '"
p310
aS"'10510CLC 100201','CLC ','','NT0081','4','T7T8R7R8<br>','15',' ','','',' '"
p311
aS"'10510CLC 100202','CLC ','','NT0081','4','M5M6W5W6<br>','15',' ','','',' '"
p312
aS"'10510CLC 100203','CLC ','','NT0091','2','M7M8<br>','15',' ','','',' '"
p313
aS"'10510CLC 100204','CLC ','','NT0091','2','R5R6<br>','15',' ','','',' '"
p314
aS"'10510CLC 100301','CLC ','','NT0093','2','F5F6<br>','15',' ','','',' '"
p315
aS"'10510CLC 100302','CLC ','','NT0092','4','T3T4R3R4<br>','15',' ','','',' '"
p316
aS"'10510CLC 100700','CLC ','','TMP429','2','W3W4<br>',' ',' ','','',' '"
p317
aS"'10510CLC 100801','CLC ','','NT2283','2','W7W8<br>','15',' ','','',' '"
p318
aS"'10510CLC 100900','CLC ','','TMP422','2','F3F4<br>',' ',' ','','',' '"
p319
aS"'10510CLC 200101','CLC ','','NT0094','4','M3M4W3W4<br>','15',' ','','',' '"
p320
aS"'10510CLC 200201','CLC ','','NT0620','4','T3T4R3R4<br>','15',' ','','',' '"
p321
aS"'10510CLC 200301','CLC ','','NT0521','4','T5T6R5R6<br>','15',' ','','',' '"
p322
aS"'10510CLC 400101','CLC ','','NT0096','3','F2F3F4<br>','15',' ','','',' '"
p323
aS"'10510COM 501000','COM ','EECS','SS0003','1','F6F7<br>','103',' ','','',' '"
p324
aS"'10510COM 512000','COM ','EECS','EE0326','3','T7T8T9<br>','100',' ','','',' '"
p325
aS"'10510COM 517000','COM ','EECS','CM0004','3','T5T6R5<br>','98',' ','','',' '"
p326
aS"'10510COM 523200','COM ','EECS','WW0292','3','M3R2R3<br>','60',' ','','',' '"
p327
aS"'10510COM 524000','COM ','EECS','NT1467','3','T3T4R3<br>','58',' ','','',' '"
p328
aS"'10510COM 524500','COM ','EECS','CM0022','3','W3W4F3F4<br>','46',' ','','',' '"
p329
aS"'10510COM 530500','COM ','EECS','NT0025','3','M5M6R6<br>','46',' ','','',' '"
p330
aS"'10510COM 534200','COM ','EECS','CM0025','3','T5T6R8<br>','40',' ','','',' '"
p331
aS"'10510COM 601000','COM ','EECS','SS0001','2',' ',' ',' ','','',' '"
p332
aS"'10510COM 701000','COM ','EECS','SS0002','0',' ',' ',' ','','',' '"
p333
aS"'10510CS  135501','CS  ','EECS','NT2131','3','M7M8<br>R5R6<br>','60',' ','','',' '"
p334
aS"'10510CS  135502','CS  ','EECS','NT2131','3','M7M8<br>R5R6<br>','60',' ','','',' '"
p335
aS"'10510CS  135503','CS  ','EECS','NT2131','3','M7M8<br>R5R6<br>','60',' ','','',' '"
p336
aS"'10510CS  135701','CS  ','EECS','CD0169','2','R7R8R9<br>','60',' ','','',' '"
p337
aS"'10510CS  135702','CS  ','EECS','CD0169','2','W7W8W9<br>','60',' ','','',' '"
p338
aS"'10510CS  210401','CS  ','EECS','NT2151','3','T7T8<br>R7R8<br>','75',' ','','',' '"
p339
aS"'10510CS  210402','CS  ','EECS','NT2151','3','R7R8<br>T7T8<br>','90',' ','','',' '"
p340
aS"'10510CS  221202','CS  ','EECS','CD0300','3','R7R8R9<br>','40',' ','','',' '"
p341
aS"'10510CS  233401','CS  ','EECS','WW0437','3','M3M4W2<br>','90',' ','','',' '"
p342
aS"'10510CS  233402','CS  ','EECS','WW0437','3','M3M4W2<br>','90',' ','','',' '"
p343
aS"'10510CS  233601','CS  ','EECS','MA0065','3','M3M4W2<br>','90',' ','','',' '"
p344
aS"'10510CS  233602','CS  ','EECS','MA0065','3','M3M4W2<br>','90',' ','','',' '"
p345
aS"'10510CS  235101','CS  ','EECS','CD0019','3','T3T4R3<br>WaWb<br>','90',' ','','',' '"
p346
aS"'10510CS  235102','CS  ','EECS','CD0019','3','T3T4R3<br>WaWb<br>','90',' ','','',' '"
p347
aS"'10510CS  312000','CS  ','EECS','NE0233','3','M2R3R4<br>','80',' ','','',' '"
p348
aS"'10510CS  313000','CS  ','EECS','CD0260','3','T7T8R7<br>','50',' ','','',' '"
p349
aS"'10510CS  321100','CS  ','EECS','CD0237','3','W7W8F6<br>','140',' ','','',' '"
p350
aS"'10510CS  321201','CS  ','EECS','WW0195','3','M7M8R6<br>','80',' ','','',' '"
p351
aS"'10510CS  321202','CS  ','EECS','WW0195','3','M7M8R6<br>','80',' ','','',' '"
p352
aS"'10510CS  321300','CS  ','EECS','NT2539','3','TaTbTc<br>','40',' ','','','DL'"
p353
aS"'10510CS  330500','CS  ','EECS','NT0044','3','M7M8R6<br>','70',' ','','',' '"
p354
aS"'10510CS  333000','CS  ','EECS','MA0313','3','T5F5F6<br>','60',' ','','',' '"
p355
aS"'10510CS  333401','CS  ','EECS','CD0152','3','W4F3F4<br>','90',' ','','',' '"
p356
aS"'10510CS  333402','CS  ','EECS','CD0152','3','W3W4F3F4<br>','90',' ','','',' '"
p357
aS"'10510CS  342301','CS  ','EECS','CD0061','3','M3M4W2<br>','90',' ','','',' '"
p358
aS"'10510CS  342302','CS  ','EECS','CD0061','3','M3M4W2<br>','90',' ','','',' '"
p359
aS"'10510CS  342700','CS  ','EECS','XZ0243','3','F5F6F7<br>','40',' ','','',' '"
p360
aS"'10510CS  343300','CS  ','EECS','NT2671','3','MaMbMc<br>','0',' ','','',' '"
p361
aS"'10510CS  390100','CS  ','EECS','CD0157','1',' ','0',' ','','',' '"
p362
aS"'10510CS  390200','CS  ','EECS','CD0158','1',' ',' ',' ','','Y',' '"
p363
aS"'10510CS  410000','CS  ','EECS','CD0020','3','M5M6M7<br>','50',' ','','',' '"
p364
aS"'10510CS  410100','CS  ','EECS','CD0303','3','R3<br>T3T4<br>','50',' ','','',' '"
p365
aS"'10510CS  412500','CS  ','EECS','XA0247','3','T5F5F6<br>','50',' ','','',' '"
p366
aS"'10510CS  431101','CS  ','EECS','CD0091','3','W3W4F3<br>','100',' ','','',' '"
p367
aS"'10510CS  431102','CS  ','EECS','CD0091','3','W3W4F3<br>','100',' ','','',' '"
p368
aS"'10510CS  452000','CS  ','EECS','CD0204','3','M5M6R4<br>','40',' ','','',' '"
p369
aS"'10510CS  460100','CS  ','EECS','EE0158','3','W3W4F3<br>','80',' ','','',' '"
p370
aS"'10510CS  474000','CS  ','EECS','NT1249','3','M5M6<br>R6<br>','30',' ','','',' '"
p371
aS"'10510CS  512100','CS  ','EECS','CD0076','3','T3T4R3R4<br>','40',' ','','',' '"
p372
aS"'10510CS  513100','CS  ','EECS','XA2104','3','R6F3F4<br>','40',' ','','',' '"
p373
aS"'10510CS  517000','CS  ','EECS','CD0282','3','M6M7M8<br>','70',' ','','',' '"
p374
aS"'10510CS  524500','CS  ','EECS','CM0026','3','T7T8R7<br>','30',' ','','',' '"
p375
aS"'10510CS  530600','CS  ','EECS','NT2535','3','M7M8<br>F2<br>','70',' ','','',' '"
p376
aS"'10510CS  531900','CS  ','EECS','NT0045','3','T6T7R4<br>','20',' ','','',' '"
p377
aS"'10510CS  540500','CS  ','EECS','CD0287','3','T7T8R7<br>','30',' ','','',' '"
p378
aS"'10510CS  542200','CS  ','EECS','CD0243','3','M7M8R6<br>','60',' ','','',' '"
p379
aS"'10510CS  543200','CS  ','EECS','NT2672','3','M7M8R6<br>','60',' ','','',' '"
p380
aS"'10510CS  546000','CS  ','EECS','IS0018','3','M5M6W4<br>','0',' ','','',' '"
p381
aS"'10510CS  546400','CS  ','EECS','CD0283','3','R6R7R8<br>',' ',' ','','',' '"
p382
aS"'10510CS  550300','CS  ','EECS','NT0610','3','M7M8M9<br>','40',' ','','',' '"
p383
aS"'10510CS  553300','CS  ','EECS','CD0286','3','W3F3F4<br>','40',' ','','',' '"
p384
aS"'10510CS  565500','CS  ','EECS','NT2673','3','T3R2R3<br>','40',' ','','',' '"
p385
aS"'10510CS  570000','CS  ','EECS','TMP612','3','T7T8W9<br>','40',' ','','',' '"
p386
aS"'10510CS  580100','CS  ','EECS','CD0272','2',' ',' ',' ','','',' '"
p387
aS"'10510CS  591000','CS  ','EECS','SS0003','1','W5W6<br>','160',' ','','',' '"
p388
aS"'10510CS  655000','CS  ','EECS','CD0115','3','M7M8<br>R6<br>','40',' ','','',' '"
p389
aS"'10510CS  690000','CS  ','EECS','SS0001','2',' ',' ',' ','','',' '"
p390
aS"'10510CS  713000','CS  ','EECS','CD0120','2','W3W4<br>','0',' ','','',' '"
p391
aS"'10510CS  746100','CS  ','EECS','CD0278','2','F3F4<br>','0',' ','','',' '"
p392
aS"'10510CS  772000','CS  ','EECS','CD0088','2','M1M2<br>','0',' ','','',' '"
p393
aS"'10510CS  890000','CS  ','EECS','SS0002','0',' ',' ',' ','','',' '"
p394
aS"'10510CS  321300','CS  ','EECS','NT2539','3','TaTbTc<br>','40',' ','','','DL'"
p395
aS"'10510GEC 140302','GEC ','','NT2629','2','T7T8<br>','60','*1','3','Y','DL'"
p396
aS"'10510LS  324700','LS  ','LSCO','LS0469','2','FaFb<br>',' ',' ','','','DL'"
p397
aS"'10510LSSN510700','LSSN','LSCO','EE0429','2','T7T8<br>','15',' ','','','DL'"
p398
aS"'10510QF  321000','QF  ','COTM','NT2619','2','R5R6<br>','100',' ','','','DL'"
p399
aS"'10510DMS 110100','DMS ','LSCO','XA0980','2','W7W8<br>','30',' ','','',' '"
p400
aS"'10510DMS 110500','DMS ','LSCO','NT0252','2','T5T6T7T8<br>','24',' ','','',' '"
p401
aS"'10510DMS 224100','DMS ','LSCO','NT2632','2','TaTb<br>','30',' ','','',' '"
p402
aS"'10510DMS 230100','DMS ','LSCO','CH0273','4','M3M4W1W2<br>','50',' ','','',' '"
p403
aS"'10510DMS 301100','DMS ','LSCO','LS0431','1',' ',' ',' ','','',' '"
p404
aS"'10510DMS 302100','DMS ','LSCO','LS0083','1',' ',' ',' ','','',' '"
p405
aS"'10510DMS 320100','DMS ','LSCO','MB0023','3','T7T8T9<br>',' ',' ','','Y',' '"
p406
aS"'10510DMS 370300','DMS ','LSCO','NT0642','3','M7M8M9<br>',' ',' ','','',' '"
p407
aS"'10510DMS 370500','DMS ','LSCO','NT0445','2','T3T4<br>','40',' ','','',' '"
p408
aS"'10510DMS 370700','DMS ','LSCO','NT0639','2','W3W4<br>',' ',' ','','',' '"
p409
aS"'10510DMS 390001','DMS ','LSCO','SS0003','1','R2<br>','10',' ','','',' '"
p410
aS"'10510DMS 390002','DMS ','LSCO','SS0003','1','R2<br>','10',' ','','',' '"
p411
aS"'10510E   100101','E   ','','CC0082','2','W3W4<br>','100',' ','','',' '"
p412
aS"'10510E   100102','E   ','','CC0082','2','W3W4<br>','65',' ','','',' '"
p413
aS"'10510E   100103','E   ','','CC0082','2','W3W4<br>','130',' ','','',' '"
p414
aS"'10510E   100104','E   ','','CC0082','2','W3W4<br>','130',' ','','',' '"
p415
aS"'10510E   300300','E   ','','NT2697','3','TaTbTc<br>','60',' ','','',' '"
p416
aS"'10510E   400200','E   ','','NT1811','3','M5M6M7<br>','60',' ','','',' '"
p417
aS"'10510ECON100101','ECON','COTM','EC0035','3','M7M8M9<br>','170','*3','3','','GEC'"
p418
aS"'10510ECON100102','ECON','COTM','EC0035','3','F7F8F9<br>','100','*3','3','','GEC'"
p419
aS"'10510ECON100103','ECON','COTM','EC0035','3','M3M4W2<br>','100','*3','3','','GEC'"
p420
aS"'10510ECON100104','ECON','COTM','EC0035','3','F3F4Fn<br>','100','*3','3','','GEC'"
p421
aS"'10510ECON100105','ECON','COTM','EC0035','3','R3R4Rn<br>','100','*3','3','','GEC'"
p422
aS"'10510ECON100106','ECON','COTM','EC0035','3','M3M4Mn<br>','100','*3','3','','GEC'"
p423
aS"'10510ECON100107','ECON','COTM','EC0035','3','W3W4F3F4<br>','50','*3','3','','GEC'"
p424
aS"'10510ECON100300','ECON','COTM','CC0018','3','M7M8M9<br>','90','*1','3','','GEC'"
p425
aS"'10510ECON127101','ECON','COTM','EC0005','3','F7F8F9<br>','60',' ','','',' '"
p426
aS"'10510ECON127102','ECON','COTM','EC0005','3','W7W8W9<br>','105',' ','','',' '"
p427
aS"'10510ECON127300','ECON','COTM','WW0590','3','S2S3S4<br>','50',' ','','',' '"
p428
aS"'10510ECON206101','ECON','COTM','EC0002','3','W3W4F3F4<br>','80',' ','','Y',' '"
p429
aS"'10510ECON206102','ECON','COTM','EC0002','3','T3T4R3R4<br>','115',' ','','Y',' '"
p430
aS"'10510ECON206103','ECON','COTM','EC0002','3','T3T4R3R4<br>','90',' ','','Y',' '"
p431
aS"'10510ECON210101','ECON','COTM','EC0003','3','WnW5W6<br>','90',' ','','Y',' '"
p432
aS"'10510ECON210102','ECON','COTM','EC0003','3','T2T3T4<br>','80',' ','','Y',' '"
p433
aS"'10510ECON216101','ECON','COTM','MA0061','3','M2M3M4<br>','80',' ','','',' '"
p434
aS"'10510ECON216102','ECON','COTM','MA0061','3','M2M3M4<br>','60',' ','','',' '"
p435
aS"'10510ECON227300','ECON','COTM','EC0256','3','S2S3S4<br>',' ',' ','','Y',' '"
p436
aS"'10510ECON301300','ECON','COTM','EC0107','3','R2R3R4<br>',' ',' ','','',' '"
p437
aS"'10510ECON303300','ECON','COTM','EC0011','3','WnW5W6<br>','60',' ','','Y',' '"
p438
aS"'10510ECON304700','ECON','COTM','EC0073','3','W2W3W4<br>','80',' ','','Y',' '"
p439
aS"'10510ECON309101','ECON','COTM','EC0008','3','M7M8M9<br>','80',' ','','Y',' '"
p440
aS"'10510ECON309102','ECON','COTM','EC0008','3','W3W4F3F4<br>','80',' ','','Y',' '"
p441
aS"'10510ECON309103','ECON','COTM','EC0008','3','W3W4F3F4<br>','50',' ','','Y',' '"
p442
aS"'10510ECON310500','ECON','COTM','EC0153','3','T6T7T8<br>','85',' ','','',' '"
p443
aS"'10510ECON310600','ECON','COTM','EC0142','3','F5F6F7<br>','61',' ','','',' '"
p444
aS"'10510ECON313100','ECON','COTM','NT1223','3','R2R3R4<br>','30',' ','','Y',' '"
p445
aS"'10510ECON315400','ECON','COTM','WW0112','3','R5R6R7<br>','100',' ','','',' '"
p446
aS"'10510ECON316100','ECON','COTM','EC0009','3','W2W3W4<br>','100',' ','','Y',' '"
p447
aS"'10510ECON318100','ECON','COTM','NT2603','3','F5F6F7<br>','100',' ','','',' '"
p448
aS"'10510ECON327100','ECON','COTM','EC0139','3','TaTbTc<br>','30',' ','','Y',' '"
p449
aS"'10510ECON327101','ECON','COTM','EC0139','3','R5R6R7<br>','50',' ','','Y',' '"
p450
aS"'10510ECON328200','ECON','COTM','WW3062','3','R2R3R4<br>','50',' ','','Y',' '"
p451
aS"'10510ECON412100','ECON','COTM','EC0018','3','R2R3R4<br>','80',' ','','Y',' '"
p452
aS"'10510ECON500100','ECON','COTM','CC0018','3','W2W3W4<br>','40',' ','','',' '"
p453
aS"'10510ECON502400','ECON','COTM','NT2345','3','F2F3F4<br>','20',' ','','',' '"
p454
aS"'10510ECON503101','ECON','COTM','EC0111','3','RnR5R6<br>',' ',' ','','',' '"
p455
aS"'10510ECON503300','ECON','COTM','EC0032','3','T2T3T4<br>',' ',' ','','',' '"
p456
aS"'10510ECON506100','ECON','COTM','EC0023','3','W2W3W4<br>',' ',' ','','',' '"
p457
aS"'10510ECON509100','ECON','COTM','EC0147','3','M5M6M7<br>','30',' ','','',' '"
p458
aS"'10510ECON510500','ECON','COTM','NT1375','3','FnF5F6<br>',' ',' ','','',' '"
p459
aS"'10510ECON516300','ECON','COTM','EC0159','3','M2M3M4<br>',' ',' ','','',' '"
p460
aS"'10510ECON516600','ECON','COTM','ST0054','3','T2T3T4<br>','32',' ','','',' '"
p461
aS"'10510ECON516700','ECON','COTM','EC0246','3','RaRbRc<br>','20',' ','','',' '"
p462
aS"'10510ECON533700','ECON','COTM','EC0049','3','T2T3T4<br>','15',' ','','',' '"
p463
aS"'10510ECON591100','ECON','COTM','NT1076','0','T5T6<br>',' ',' ','','',' '"
p464
aS"'10510ECON604700','ECON','COTM','EC0239','3','W5W6W7<br>','20',' ','','',' '"
p465
aS"'10510ECON608100','ECON','COTM','NT1381','3','M6M7M8<br>','18',' ','','',' '"
p466
aS"'10510ECON612100','ECON','COTM','EC0248','3','T7T8T9<br>',' ',' ','','',' '"
p467
aS"'10510ECON699900','ECON','COTM','SS0001','2',' ',' ',' ','','',' '"
p468
aS"'10510ECON706300','ECON','COTM','NT2602','3','F1F2F3<br>',' ',' ','','',' '"
p469
aS"'10510ECON709500','ECON','COTM','EC0244','3','W5W6W7<br>','18',' ','','',' '"
p470
aS"'10510ECON800000','ECON','COTM','SS0002','0',' ',' ',' ','','',' '"
p471
aS"'10510ECON890100','ECON','COTM','SS0092','0',' ',' ',' ','','',' '"
p472
aS"'10510ECON891100','ECON','COTM','SS0020','1','T5T6<br>',' ',' ','','',' '"
p473
aS"'10510EE  152000','EE  ','EECS','EE0402','2','W5W6<br>','40',' ','','',' '"
p474
aS"'10510EE  201501','EE  ','EECS','EE0435','3','T5T6R5R6<br>','60',' ','','Y',' '"
p475
aS"'10510EE  201502','EE  ','EECS','EE0435','3','T5T6R5R6<br>','90',' ','','Y',' '"
p476
aS"'10510EE  203001','EE  ','EECS','WW0437','3','W3W4F3F4<br>','65',' ','','',' '"
p477
aS"'10510EE  203002','EE  ','EECS','WW0437','3','W3W4F3F4<br>','65',' ','','',' '"
p478
aS"'10510EE  211000','EE  ','EECS','MS0177','3','M5M6R5<br>','46',' ','','',' '"
p479
aS"'10510EE  214000','EE  ','EECS','WW0332','3','M3M4W2<br>','60',' ','','Y',' '"
p480
aS"'10510EE  221001','EE  ','EECS','PM0221','3','M3M4W1W2<br>','40',' ','','',' '"
p481
aS"'10510EE  221002','EE  ','EECS','PM0221','3','M3M4W1W2<br>','80',' ','','',' '"
p482
aS"'10510EE  224501','EE  ','EECS','CD0175','2','M7M8M9<br>','70',' ','','Y',' '"
p483
aS"'10510EE  224502','EE  ','EECS','CD0175','2','T7T8T9<br>','70',' ','','Y',' '"
p484
aS"'10510EE  225501','EE  ','EECS','NS0123','3','T3T4R3R4<br>','80',' ','','',' '"
p485
aS"'10510EE  225502','EE  ','EECS','NS0123','3','T3T4R3R4<br>','50',' ','','',' '"
p486
aS"'10510EE  228001','EE  ','EECS','EE0131','3','T5T6R5R6<br>','85',' ','','',' '"
p487
aS"'10510EE  228002','EE  ','EECS','EE0131','3','T5T6R5R6<br>','85',' ','','',' '"
p488
aS"'10510EE  231001','EE  ','EECS','CD0168','3','M1M2R1R2<br>','60',' ','','',' '"
p489
aS"'10510EE  231002','EE  ','EECS','CD0168','3','M1M2R1R2<br>','60',' ','','',' '"
p490
aS"'10510EE  240100','EE  ','EECS','EE0366','3','T7T8R7<br>','40',' ','','',' '"
p491
aS"'10510EE  306000','EE  ','EECS','EE0280','3','W3W4F3F4<br>','25',' ','','Y',' '"
p492
aS"'10510EE  313000','EE  ','EECS','EE0424','3','W5W6R8<br>','98',' ','','',' '"
p493
aS"'10510EE  315000','EE  ','EECS','EE0088','3','M3M4W2<br>','46',' ','','',' '"
p494
aS"'10510EE  323000','EE  ','EECS','EE0348','3','M5M6<br>R5<br>','55',' ','','',' '"
p495
aS"'10510EE  323500','EE  ','EECS','NT1021','3','W5W6R8<br>','60',' ','','Y',' '"
p496
aS"'10510EE  335000','EE  ','EECS','EE0350','3','W3W4F4<br>','100',' ','','',' '"
p497
aS"'10510EE  345000','EE  ','EECS','CD0020','3','T3T4R4<br>','90',' ','','Y',' '"
p498
aS"'10510EE  361000','EE  ','EECS','WW0519','3','W5W6R8R9<br>','85',' ','','',' '"
p499
aS"'10510EE  364000','EE  ','EECS','WW0336','3','M5M6R5<br>','48',' ','','',' '"
p500
aS"'10510EE  366200','EE  ','EECS','EE0343','2','M7M8M9<br>','60',' ','','',' '"
p501
aS"'10510EE  382000','EE  ','EECS','PM0078','3','M7M8R6<br>','60',' ','','',' '"
p502
aS"'10510EE  390000','EE  ','EECS','EE0305','1','S7<br>','0',' ','','',' '"
p503
aS"'10510EE  391000','EE  ','EECS','EE0306','2','S8S9<br>','0',' ','','Y',' '"
p504
aS"'10510EE  411000','EE  ','EECS','EE0229','3','M5M6W5<br>','35',' ','','',' '"
p505
aS"'10510EE  412000','EE  ','EECS','EE0062','3','T3T4R4<br>',' ',' ','','',' '"
p506
aS"'10510EE  415000','EE  ','EECS','PH0069','2','T7T8T9<br>','20',' ','','',' '"
p507
aS"'10510EE  429200','EE  ','EECS','WW0676','3','R7R8R9Ra<br>','50',' ','','',' '"
p508
aS"'10510EE  432000','EE  ','EECS','EE0384','2','M7M8M9<br>','28',' ','','',' '"
p509
aS"'10510EE  441000','EE  ','EECS','EE0416','3','T5T6R3<br>','46',' ','','',' '"
p510
aS"'10510EE  464000','EE  ','EECS','EE0327','3','W3W4F3F4<br>','60',' ','','',' '"
p511
aS"'10510EE  465000','EE  ','EECS','EE0235','2','W7W8W9<br>','24',' ','','Y',' '"
p512
aS"'10510EE  471000','EE  ','EECS','EE0026','3','M9W7W8<br>','25',' ','','',' '"
p513
aS"'10510EE  483000','EE  ','EECS','EE0081','3','T7T8R7<br>','58',' ','','',' '"
p514
aS"'10510EE  490000','EE  ','EECS','NT0587','1',' ','0',' ','','',' '"
p515
aS"'10510EE  491000','EE  ','EECS','NT0588','1',' ','0',' ','','',' '"
p516
aS"'10510EE  503700','EE  ','EECS','NT0052','3','M5M6W6<br>','20',' ','','',' '"
p517
aS"'10510EE  523000','EE  ','EECS','EE0309','3','T5T6R5<br>','60',' ','','',' '"
p518
aS"'10510EE  525000','EE  ','EECS','CD0012','3','T7T8R7<br>','85',' ','','',' '"
p519
aS"'10510EE  528000','EE  ','EECS','EE0387','3','RaRbRc<br>','60',' ','','',' '"
p520
aS"'10510EE  541000','EE  ','EECS','EE0213','3','M2M3M4<br>','103',' ','','',' '"
p521
aS"'10510EE  563000','EE  ','EECS','EE0040','3','M7M8W8<br>','98',' ','','',' '"
p522
aS"'10510EE  571000','EE  ','EECS','EE0140','3','TaTbTc<br>','45',' ','','',' '"
p523
aS"'10510EE  581000','EE  ','EECS','PM0036','3','W3W4R3<br>','60',' ','','',' '"
p524
aS"'10510EE  585000','EE  ','EECS','EE0333','3','WaWbWc<br>','46',' ','','',' '"
p525
aS"'10510EE  591000','EE  ','EECS','SS0003','1','F6F7<br>','170',' ','','',' '"
p526
aS"'10510EE  625000','EE  ','EECS','CD0107','3','RaRbRc<br>','46',' ','','',' '"
p527
aS"'10510EE  626100','EE  ','EECS','NT2152','3','T5T6R6<br>','25',' ','','',' '"
p528
aS"'10510EE  626500','EE  ','EECS','EE0427','3','T4R5R6<br>','25',' ','','',' '"
p529
aS"'10510EE  641300','EE  ','EECS','LS0302','3','W3W4F2<br>','58',' ','','',' '"
p530
aS"'10510EE  645500','EE  ','EECS','CD0052','3','R7R8R9<br>','46',' ','','',' '"
p531
aS"'10510EE  647000','EE  ','EECS','NT1001','3','M5M6R2<br>','60',' ','','',' '"
p532
aS"'10510EE  648500','EE  ','EECS','CD0081','3','W7W8W9<br>','60',' ','','',' '"
p533
aS"'10510EE  664000','EE  ','EECS','EE0092','3','T5T6R7<br>','25',' ','','',' '"
p534
aS"'10510EE  665000','EE  ','EECS','EE0316','3','T7T8T9<br>','30',' ','','',' '"
p535
aS"'10510EE  665200','EE  ','EECS','EE0275','3','M7M8T1T2<br>','25',' ','','',' '"
p536
aS"'10510EE  666000','EE  ','EECS','CD0024','3','W3W4F2<br>','46',' ','','',' '"
p537
aS"'10510EE  690000','EE  ','EECS','SS0001','2',' ',' ',' ','','',' '"
p538
aS"'10510EE  692100','EE  ','EECS','NT2527','3','T4F3F4<br>','30',' ','','',' '"
p539
aS"'10510EE  890000','EE  ','EECS','SS0002','0',' ',' ',' ','','',' '"
p540
aS"'10510EECS111000','EECS','EECS','CD0168','3','M3M4<br>W1W2<br>','40',' ','','',' '"
p541
aS"'10510EECS390000','EECS','EECS','EE0305','1',' ',' ',' ','','',' '"
p542
aS"'10510EECS391000','EECS','EECS','EE0306','1',' ',' ',' ','','',' '"
p543
aS"'10510EMBA501000','EMBA','COTM','SS0001','2',' ',' ',' ','','',' '"
p544
aS"'10510EMBA503200','EMBA','COTM','FL0086','2','RaRb<br>','30',' ','','',' '"
p545
aS"'10510EMBA506700','EMBA','COTM','EM0125','2','WaWb<br>','50',' ','','',' '"
p546
aS"'10510EMBA507100','EMBA','COTM','HI0246','2','FaFb<br>','50',' ','','',' '"
p547
aS"'10510EMBA507200','EMBA','COTM','LA0093','2','FaFb<br>','40',' ','','',' '"
p548
aS"'10510EMBA507300','EMBA','COTM','EM0150','3','S5S6S7<br>',' ',' ','','',' '"
p549
aS"'10510EMBA507800','EMBA','COTM','WW0051','3','S2S3S4<br>',' ',' ','','',' '"
p550
aS"'10510EMBA508400','EMBA','COTM','EM0160','3','S5S6S7<br>',' ',' ','','',' '"
p551
aS"'10510EMBA508900','EMBA','COTM','EM0166','3','S2S3S4<br>',' ',' ','','',' '"
p552
aS"'10510EMBA509600','EMBA','COTM','NT1151','1','Ma<br>','30',' ','','',' '"
p553
aS"'10510EMBA509900','EMBA','COTM','NT1259','2','S8S9<br>','50',' ','','',' '"
p554
aS"'10510EMBA510000','EMBA','COTM','NT1339','2','MbMc<br>','50',' ','','',' '"
p555
aS"'10510EMBA510400','EMBA','COTM','NT2472','1','M3<br>','0',' ','','',' '"
p556
aS"'10510EMS 500100','EMS ','COTM','WW0034','2','S3S4<br>',' ',' ','','',' '"
p557
aS"'10510EMS 500200','EMS ','COTM','NT2621','2','S6S7<br>',' ',' ','','',' '"
p558
aS"'10510EMS 500300','EMS ','COTM','NT2622','2','M3M4<br>',' ',' ','','',' '"
p559
aS"'10510EMS 500400','EMS ','COTM','TMP586','2','S8S9<br>',' ',' ','','',' '"
p560
aS"'10510ENE 522000','ENE ','EECS','EE0042','3','W2W3W4<br>','50',' ','','',' '"
p561
aS"'10510ENE 527000','ENE ','EECS','NT0580','3','M2M3M4<br>','50',' ','','',' '"
p562
aS"'10510ENE 528000','ENE ','EECS','NT2115','3','T5T6R5<br>','50',' ','','',' '"
p563
aS"'10510ENE 531000','ENE ','EECS','EE0032','3','W5W6R7<br>','135',' ','','',' '"
p564
aS"'10510ENE 532000','ENE ','EECS','EE0033','2','W7W8W9<br>','98',' ','','',' '"
p565
aS"'10510ENE 533000','ENE ','EECS','EE0034','3','M7M8R8<br>','110',' ','','',' '"
p566
aS"'10510ENE 535500','ENE ','EECS','EE0415','3','F2F3F4<br>','10',' ','','',' '"
p567
aS"'10510ENE 539500','ENE ','EECS','WW0221','3','T2T3T4<br>','50',' ','','',' '"
p568
aS"'10510ENE 540000','ENE ','EECS','ME0004','3','T5T6R6<br>','50',' ','','',' '"
p569
aS"'10510ENE 591000','ENE ','EECS','SS0003','1','F6F7<br>','135',' ','','',' '"
p570
aS"'10510ENE 633000','ENE ','EECS','EE0287','3','R2R3R4<br>','50',' ','','',' '"
p571
aS"'10510ENE 690000','ENE ','EECS','SS0001','2',' ',' ',' ','','',' '"
p572
aS"'10510ENE 890000','ENE ','EECS','SS0002','0',' ',' ',' ','','',' '"
p573
aS"'10510ESS 100000','ESS ','NUCL','NE0158','1','R7R8<br>',' ',' ','','',' '"
p574
aS"'10510ESS 200900','ESS ','NUCL','NE0004','3','M1M2R1R2<br>',' ',' ','','',' '"
p575
aS"'10510ESS 202001','ESS ','NUCL','CD0004','3','M2R1R2<br>','60',' ','','',' '"
p576
aS"'10510ESS 202002','ESS ','NUCL','CD0004','3','M7M8R5R6<br>','60',' ','','',' '"
p577
aS"'10510ESS 203001','ESS ','NUCL','EA0002','3','T1T2F1F2<br>','60',' ','','Y',' '"
p578
aS"'10510ESS 203002','ESS ','NUCL','EA0002','3','M3M4W1W2<br>','60',' ','','Y',' '"
p579
aS"'10510ESS 220000','ESS ','NUCL','PM0221','3','T3T4R3R4<br>','80',' ','','',' '"
p580
aS"'10510ESS 222000','ESS ','NUCL','CD0176','4','W3W4F3F4<br>',' ',' ','','',' '"
p581
aS"'10510ESS 223000','ESS ','NUCL','EE0016','3','W3W4F3F4<br>','80',' ','','',' '"
p582
aS"'10510ESS 224001','ESS ','NUCL','NE0132','2','F5F6F7F8<br>','40',' ','','',' '"
p583
aS"'10510ESS 224002','ESS ','NUCL','NE0132','2','T5T6T7T8<br>','40',' ','','',' '"
p584
aS"'10510ESS 234000','ESS ','NUCL','EA0022','3','M1M2R1R2<br>',' ',' ','','',' '"
p585
aS"'10510ESS 240001','ESS ','NUCL','WW1613','3','M3M4W1W2<br>','55',' ','','',' '"
p586
aS"'10510ESS 240002','ESS ','NUCL','WW1613','3','T1T2F1F2<br>','55',' ','','',' '"
p587
aS"'10510ESS 250100','ESS ','NUCL','MS0163','3','M5M6R7R8<br>',' ',' ','','',' '"
p588
aS"'10510ESS 302200','ESS ','NUCL','EA0027','2','MaMbMc<br>','18',' ','','',' '"
p589
aS"'10510ESS 303000','ESS ','NUCL','NE0260','3','M7M8R5R6<br>','60',' ','','',' '"
p590
aS"'10510ESS 305001','ESS ','NUCL','EE0023','3','W3W4F3F4<br>','55',' ','','Y',' '"
p591
aS"'10510ESS 305002','ESS ','NUCL','EE0023','3','T3T4R3R4<br>','55',' ','','Y',' '"
p592
aS"'10510ESS 323000','ESS ','NUCL','EE0018','3','M3M4W1W2<br>',' ',' ','','',' '"
p593
aS"'10510ESS 327001','ESS ','NUCL','NE0200','3','W3W4F3F4<br>','55',' ','','Y',' '"
p594
aS"'10510ESS 327002','ESS ','NUCL','NE0200','3','T3T4R3R4<br>','55',' ','','Y',' '"
p595
aS"'10510ESS 327100','ESS ','NUCL','NE0224','2','R7R8R9<br>','16',' ','','',' '"
p596
aS"'10510ESS 328000','ESS ','NUCL','WW0519','3','T7T8R7R8<br>',' ',' ','','',' '"
p597
aS"'10510ESS 341000','ESS ','NUCL','NE0071','2','RaRbRc<br>','20',' ','','',' '"
p598
aS"'10510ESS 342000','ESS ','NUCL','NE0008','3','M1M2R1R2<br>',' ',' ','','',' '"
p599
aS"'10510ESS 351000','ESS ','NUCL','MS0001','3','M5M6F5F6<br>',' ',' ','','',' '"
p600
aS"'10510ESS 371000','ESS ','NUCL','TMP570','3','W7W8W9<br>',' ',' ','','',' '"
p601
aS"'10510ESS 401000','ESS ','NUCL','NT1076','1','T5T6<br>',' ',' ','','',' '"
p602
aS"'10510ESS 401100','ESS ','NUCL','RB0006','3','W3W4F3F4<br>',' ',' ','','',' '"
p603
aS"'10510ESS 410000','ESS ','NUCL','NE0094','3','M7M8R6<br>',' ',' ','','',' '"
p604
aS"'10510ESS 424000','ESS ','NUCL','EE0348','3','MnM5M6<br>',' ',' ','','',' '"
p605
aS"'10510ESS 430200','ESS ','NUCL','EE0202','3','T7T8T9<br>',' ',' ','','',' '"
p606
aS"'10510ESS 441000','ESS ','NUCL','NT0138','2','T3T4<br>','50',' ','','',' '"
p607
aS"'10510ESS 441500','ESS ','NUCL','NE0301','3','M7M8M9<br>',' ',' ','','',' '"
p608
aS"'10510ESS 450000','ESS ','NUCL','WW0159','3','M7M8R5R6<br>',' ',' ','','',' '"
p609
aS"'10510ESS 451000','ESS ','NUCL','MS0047','3','T7T8T9<br>',' ',' ','','',' '"
p610
aS"'10510ESS 453000','ESS ','NUCL','NE0237','3','R7R8R9<br>',' ',' ','','',' '"
p611
aS"'10510ESS 455000','ESS ','NUCL','NE0315','1','Wa<br>','16',' ','','',' '"
p612
aS"'10510ESS 461000','ESS ','NUCL','NE0073','3','RaRbRc<br>',' ',' ','','',' '"
p613
aS"'10510ESS 480000','ESS ','NUCL','NE0307','3','W7W8W9<br>',' ',' ','','',' '"
p614
aS"'10510ESS 482000','ESS ','NUCL','NT1389','3','RaRbRc<br>',' ',' ','','',' '"
p615
aS"'10510ESS 498000','ESS ','NUCL','NE0130','1',' ',' ',' ','','',' '"
p616
aS"'10510ESS 499000','ESS ','NUCL','NE0146','1',' ',' ',' ','','',' '"
p617
aS"'10510ESS 500000','ESS ','NUCL','SS0011','0','W7W8<br>',' ',' ','','',' '"
p618
aS"'10510ESS 501001','ESS ','NUCL','SS0003','1','W5W6<br>',' ',' ','','',' '"
p619
aS"'10510ESS 501002','ESS ','NUCL','SS0003','1','W5W6<br>',' ',' ','','',' '"
p620
aS"'10510ESS 501003','ESS ','NUCL','SS0003','1','W5W6<br>',' ',' ','','',' '"
p621
aS"'10510ESS 501004','ESS ','NUCL','SS0003','1','W5W6<br>',' ',' ','','',' '"
p622
aS"'10510ESS 501005','ESS ','NUCL','SS0003','1','W5W6<br>',' ',' ','','',' '"
p623
aS"'10510ESS 501006','ESS ','NUCL','SS0003','1','FaFb<br>',' ',' ','','',' '"
p624
aS"'10510ESS 523300','ESS ','NUCL','NT1426','3','R7R8R9<br>','15',' ','','',' '"
p625
aS"'10510ESS 531000','ESS ','NUCL','NE0078','3','T7T8R7<br>',' ',' ','','',' '"
p626
aS"'10510ESS 534000','ESS ','NUCL','NE0183','3','F6F7F8<br>',' ',' ','','',' '"
p627
aS"'10510ESS 534100','ESS ','NUCL','NE0236','3','RaRbRc<br>',' ',' ','','',' '"
p628
aS"'10510ESS 554000','ESS ','NUCL','NE0137','3','M7M8M9<br>',' ',' ','','',' '"
p629
aS"'10510ESS 556500','ESS ','NUCL','NT0538','3','W2W3W4<br>',' ',' ','','',' '"
p630
aS"'10510ESS 562000','ESS ','NUCL','NE0100','3','R6R7R8<br>',' ',' ','','',' '"
p631
aS"'10510ESS 564400','ESS ','NUCL','NT2065','3','T7T8T9<br>',' ',' ','','',' '"
p632
aS"'10510ESS 581000','ESS ','NUCL','NE0241','3','MnM5M6<br>','20',' ','','',' '"
p633
aS"'10510ESS 584700','ESS ','NUCL','NE0318','3','F5F6F7<br>','20',' ','','',' '"
p634
aS"'10510ESS 585000','ESS ','NUCL','NE0160','3','M2M3M4<br>',' ',' ','','',' '"
p635
aS"'10510ESS 589600','ESS ','NUCL','NE0310','3','T3T4Tn<br>',' ',' ','','',' '"
p636
aS"'10510ESS 643000','ESS ','NUCL','NE0036','3','T7T8T9<br>',' ',' ','','',' '"
p637
aS"'10510ESS 698000','ESS ','NUCL','SS0001','2',' ',' ',' ','','',' '"
p638
aS"'10510ESS 998000','ESS ','NUCL','SS0002','0',' ',' ',' ','','',' '"
p639
aS"'10510FL  100300','FL  ','CHS','FL0506','3','M3M4Mn<br>','70',' ','','',' '"
p640
aS"'10510FL  100500','FL  ','CHS','FL0021','3','T7T8T9<br>','70',' ','','',' '"
p641
aS"'10510FL  101001','FL  ','CHS','FL0001','3','W3W4Wn<br>','30',' ','','',' '"
p642
aS"'10510FL  101002','FL  ','CHS','FL0001','3','W3W4Wn<br>','30',' ','','',' '"
p643
aS"'10510FL  102801','FL  ','CHS','FA0025','2','M1M2<br>','30',' ','','',' '"
p644
aS"'10510FL  102802','FL  ','CHS','FA0025','2','M1M2<br>','30',' ','','',' '"
p645
aS"'10510FL  102803','FL  ','CHS','FA0025','2','M3M4<br>','30',' ','','',' '"
p646
aS"'10510FL  102804','FL  ','CHS','FA0025','2','W3W4<br>','30',' ','','',' '"
p647
aS"'10510FL  102805','FL  ','CHS','FA0025','2','R1R2<br>','30',' ','','',' '"
p648
aS"'10510FL  102806','FL  ','CHS','FA0025','2','F3F4<br>','30',' ','','',' '"
p649
aS"'10510FL  102807','FL  ','CHS','FA0026','2','M1M2<br>','30',' ','','',' '"
p650
aS"'10510FL  102808','FL  ','CHS','FA0026','2','M1M2<br>','30',' ','','',' '"
p651
aS"'10510FL  102809','FL  ','CHS','FA0026','2','M3M4<br>','30',' ','','',' '"
p652
aS"'10510FL  102810','FL  ','CHS','FA0026','2','W3W4<br>','30',' ','','',' '"
p653
aS"'10510FL  102811','FL  ','CHS','FA0026','2','W3W4<br>','30',' ','','',' '"
p654
aS"'10510FL  102812','FL  ','CHS','FA0026','2','R1R2<br>','30',' ','','',' '"
p655
aS"'10510FL  103500','FL  ','CHS','FL0031','3','R2R3R4<br>','70',' ','','',' '"
p656
aS"'10510FL  104101','FL  ','CHS','FL0271','2','T5T6<br>','30',' ','','',' '"
p657
aS"'10510FL  104102','FL  ','CHS','FL0271','2','T5T6<br>','30',' ','','',' '"
p658
aS"'10510FL  200300','FL  ','CHS','FL0672','3','T6T7T8<br>','30',' ','','',' '"
p659
aS"'10510FL  200901','FL  ','CHS','FL0302','2','T3T4<br>','18',' ','','',' '"
p660
aS"'10510FL  200902','FL  ','CHS','FL0302','2','T3T4<br>','18',' ','','',' '"
p661
aS"'10510FL  200903','FL  ','CHS','FL0302','2','T3T4<br>','18',' ','','',' '"
p662
aS"'10510FL  201101','FL  ','CHS','FL0026','3','M7M8M9<br>','30',' ','','',' '"
p663
aS"'10510FL  201102','FL  ','CHS','FL0026','3','M3M4Mn<br>','42',' ','','',' '"
p664
aS"'10510FL  201103','FL  ','CHS','FL0026','3','W3W4Wn<br>','42',' ','','',' '"
p665
aS"'10510FL  201104','FL  ','CHS','FL0026','3','W6W7W8<br>','42',' ','','',' '"
p666
aS"'10510FL  201105','FL  ','CHS','FL0026','3','F5F6F7<br>','42',' ','','',' '"
p667
aS"'10510FL  201106','FL  ','CHS','FL0026','3','T6T7T8<br>','42',' ','','',' '"
p668
aS"'10510FL  201107','FL  ','CHS','FL0026','3','R6R7R8<br>','42',' ','','',' '"
p669
aS"'10510FL  201108','FL  ','CHS','FL0026','3','T2T3T4<br>','42',' ','','',' '"
p670
aS"'10510FL  201109','FL  ','CHS','FL0026','3','T5T6T7<br>','42',' ','','',' '"
p671
aS"'10510FL  201110','FL  ','CHS','FL0026','3','R2R3R4<br>','42',' ','','',' '"
p672
aS"'10510FL  201111','FL  ','CHS','FL0026','3','W7W8W9<br>','42',' ','','',' '"
p673
aS"'10510FL  201112','FL  ','CHS','FL0026','3','MnM5M6<br>','42',' ','','',' '"
p674
aS"'10510FL  201113','FL  ','CHS','FL0026','3','M7M8M9<br>','42',' ','','',' '"
p675
aS"'10510FL  201114','FL  ','CHS','FL0026','3','W5W6W7<br>','42',' ','','',' '"
p676
aS"'10510FL  201115','FL  ','CHS','FL0026','3','T3T4Tn<br>','42',' ','','',' '"
p677
aS"'10510FL  201116','FL  ','CHS','FL0026','3','T5T6T7<br>','42',' ','','',' '"
p678
aS"'10510FL  201301','FL  ','CHS','FL0256','3','R7R8R9<br>','30',' ','','',' '"
p679
aS"'10510FL  201302','FL  ','CHS','FL0256','3','M5M6M7<br>','42',' ','','',' '"
p680
aS"'10510FL  201303','FL  ','CHS','FL0256','3','R3R4Rn<br>','42',' ','','',' '"
p681
aS"'10510FL  201304','FL  ','CHS','FL0256','3','F3F4Fn<br>','42',' ','','',' '"
p682
aS"'10510FL  201305','FL  ','CHS','FL0256','3','F5F6F7<br>','42',' ','','',' '"
p683
aS"'10510FL  201501','FL  ','CHS','FL0028','3','M7M8M9<br>','30',' ','','',' '"
p684
aS"'10510FL  201502','FL  ','CHS','FL0028','3','F3F4Fn<br>','42',' ','','',' '"
p685
aS"'10510FL  201503','FL  ','CHS','FL0028','3','M7M8M9<br>','42',' ','','',' '"
p686
aS"'10510FL  201504','FL  ','CHS','FL0028','3','R7R8R9<br>','42',' ','','',' '"
p687
aS"'10510FL  201505','FL  ','CHS','FL0028','3','W7W8W9<br>','42',' ','','',' '"
p688
aS"'10510FL  203901','FL  ','CHS','FL0564','2','M5M6<br>','20',' ','','',' '"
p689
aS"'10510FL  203902','FL  ','CHS','FL0564','2','R5R6<br>','20',' ','','',' '"
p690
aS"'10510FL  203903','FL  ','CHS','FL0564','2','R5R6<br>','20',' ','','',' '"
p691
aS"'10510FL  204101','FL  ','CHS','FL0036','3','M7M8M9<br>','30',' ','','',' '"
p692
aS"'10510FL  204102','FL  ','CHS','FL0036','3','M3M4Mn<br>','42',' ','','',' '"
p693
aS"'10510FL  204103','FL  ','CHS','FL0036','3','T3T4Tn<br>','42',' ','','',' '"
p694
aS"'10510FL  204104','FL  ','CHS','FL0036','3','W7W8W9<br>','42',' ','','',' '"
p695
aS"'10510FL  204105','FL  ','CHS','FL0036','3','T3T4Tn<br>','42',' ','','',' '"
p696
aS"'10510FL  204106','FL  ','CHS','FL0036','3','T7T8T9<br>','42',' ','','',' '"
p697
aS"'10510FL  204107','FL  ','CHS','FL0036','3','F7F8F9<br>','42',' ','','',' '"
p698
aS"'10510FL  204700','FL  ','CHS','FL0063','3','W6W7W8<br>','30',' ','','',' '"
p699
aS"'10510FL  213700','FL  ','CHS','NT0917','3','R6R7R8<br>','40',' ','','',' '"
p700
aS"'10510FL  300301','FL  ','CHS','FL0363','2','T3T4<br>','20',' ','','Y',' '"
p701
aS"'10510FL  300302','FL  ','CHS','FL0363','2','T3T4<br>','20',' ','','Y',' '"
p702
aS"'10510FL  300303','FL  ','CHS','FL0363','2','T3T4<br>','20',' ','','Y',' '"
p703
aS"'10510FL  300501','FL  ','CHS','FL0042','3','R7R8R9<br>','30',' ','','Y',' '"
p704
aS"'10510FL  300502','FL  ','CHS','FL0042','3','M6M7M8<br>','42',' ','','Y',' '"
p705
aS"'10510FL  300503','FL  ','CHS','FL0042','3','T3T4Tn<br>','42',' ','','Y',' '"
p706
aS"'10510FL  300504','FL  ','CHS','FL0042','3','R3R4Rn<br>','42',' ','','Y',' '"
p707
aS"'10510FL  300505','FL  ','CHS','FL0042','3','F3F4Fn<br>','42',' ','','Y',' '"
p708
aS"'10510FL  300506','FL  ','CHS','FL0042','3','M2M3M4<br>','42',' ','','Y',' '"
p709
aS"'10510FL  300507','FL  ','CHS','FL0042','3','W3W4Wn<br>','42',' ','','Y',' '"
p710
aS"'10510FL  300508','FL  ','CHS','FL0042','3','R7R8R9<br>','42',' ','','Y',' '"
p711
aS"'10510FL  300701','FL  ','CHS','FL0043','3','R7R8R9<br>','28',' ','','Y',' '"
p712
aS"'10510FL  300702','FL  ','CHS','FL0043','3','M7M8M9<br>','28',' ','','Y',' '"
p713
aS"'10510FL  300901','FL  ','CHS','FL0044','3','T7T8T9<br>','30',' ','','Y',' '"
p714
aS"'10510FL  300902','FL  ','CHS','FL0044','3','W3W4Wn<br>','42',' ','','Y',' '"
p715
aS"'10510FL  301200','FL  ','CHS','NT0496','3','W3W4Wn<br>','50',' ','','',' '"
p716
aS"'10510FL  304400','FL  ','CHS','FL0307','3','R3R4Rn<br>','40',' ','','',' '"
p717
aS"'10510FL  304800','FL  ','CHS','FL0262','3','W7W8W9<br>','30',' ','','',' '"
p718
aS"'10510FL  306300','FL  ','CHS','FL0276','3','M3M4W2<br>','40',' ','','Y',' '"
p719
aS"'10510FL  309000','FL  ','CHS','NT2024','2','M5M6<br>','40',' ','','',' '"
p720
aS"'10510FL  310000','FL  ','CHS','FL0510','3','W3W4Wn<br>','30',' ','','',' '"
p721
aS"'10510FL  327100','FL  ','CHS','FL0416','3','WnW5W6<br>','42',' ','','Y',' '"
p722
aS"'10510FL  327700','FL  ','CHS','NT2034','3','R3R4Rn<br>','42',' ','','',' '"
p723
aS"'10510FL  328001','FL  ','CHS','FL0213','3','T3T4Tn<br>','42',' ','','',' '"
p724
aS"'10510FL  328002','FL  ','CHS','FL0213','3','T5T6T7<br>','42',' ','','',' '"
p725
aS"'10510FL  328003','FL  ','CHS','FL0213','3','W5W6W7<br>','42',' ','','',' '"
p726
aS"'10510FL  328004','FL  ','CHS','FL0213','3','W3W4Wn<br>','42',' ','','',' '"
p727
aS"'10510FL  328100','FL  ','CHS','NT0103','3','F3F4Fn<br>','42',' ','','',' '"
p728
aS"'10510FL  341900','FL  ','CHS','NT0931','3','M7M8M9<br>','40',' ','','',' '"
p729
aS"'10510FL  342401','FL  ','CHS','NT1080','3','R7R8R9<br>','42',' ','','',' '"
p730
aS"'10510FL  342900','FL  ','CHS','FL0609','2','M5M6<br>','42',' ','','Y',' '"
p731
aS"'10510FL  343100','FL  ','CHS','NT1388','2','RnR5<br>','42',' ','','Y',' '"
p732
aS"'10510FL  343400','FL  ','CHS','NT1383','3','F5F6F7<br>','30',' ','','Y',' '"
p733
aS"'10510FL  344500','FL  ','CHS','NT1764','2','W5W6<br>','50',' ','','',' '"
p734
aS"'10510FL  402000','FL  ','CHS','LI0206','3','T7T8T9<br>','18',' ','','',' '"
p735
aS"'10510FL  402500','FL  ','CHS','NT1386','3','F5F6F7<br>','42',' ','','',' '"
p736
aS"'10510FL  403900','FL  ','CHS','FL0114','3','M3M4Mn<br>','30',' ','','Y',' '"
p737
aS"'10510FL  404400','FL  ','CHS','XA0897','3','T7T8T9<br>','30',' ','','Y',' '"
p738
aS"'10510FL  404700','FL  ','CHS','FL0209','3','MnM5M6<br>','30',' ','','Y',' '"
p739
aS"'10510FL  404701','FL  ','CHS','FL0209','3','T7T8T9<br>','42',' ','','Y',' '"
p740
aS"'10510FL  404702','FL  ','CHS','FL0209','3','W5W6W7<br>','42',' ','','Y',' '"
p741
aS"'10510FL  404900','FL  ','CHS','FL0554','2','R6R7<br>','42',' ','','Y',' '"
p742
aS"'10510FL  405100','FL  ','CHS','FL0636','2','W3W4<br>','20',' ','','Y',' '"
p743
aS"'10510FL  405400','FL  ','CHS','NT2644','3','M3M4Mn<br>','42',' ','','',' '"
p744
aS"'10510FL  406500','FL  ','CHS','FL0241','2','W7W8<br>','16',' ','','',' '"
p745
aS"'10510FL  406700','FL  ','CHS','FL0188','2','W5W6<br>','25',' ','','',' '"
p746
aS"'10510FL  407100','FL  ','CHS','FL0255','3','R2R3R4<br>','42',' ','','Y',' '"
p747
aS"'10510FL  420700','FL  ','CHS','FL0676','3','M2M3M4<br>','30',' ','','Y',' '"
p748
aS"'10510FL  420800','FL  ','CHS','NT0959','3','T3T4Tn<br>','42',' ','','Y',' '"
p749
aS"'10510FL  422000','FL  ','CHS','NT2597','2','W5W6<br>','18',' ','','',' '"
p750
aS"'10510FL  500100','FL  ','CHS','LT0001','3','W3W4Wn<br>','18',' ','','',' '"
p751
aS"'10510FL  513700','FL  ','CHS','LT0082','3','R6R7R8<br>','18',' ','','',' '"
p752
aS"'10510FL  514000','FL  ','CHS','NT0289','3','T2T3T4<br>','18',' ','','',' '"
p753
aS"'10510FL  520100','FL  ','CHS','FL0360','3','T6T7T8<br>','18',' ','','',' '"
p754
aS"'10510FL  560100','FL  ','CHS','FL0201','3','T6T7T8<br>','18',' ','','',' '"
p755
aS"'10510FL  560300','FL  ','CHS','NT2027','3','T3T4Tn<br>','18',' ','','',' '"
p756
aS"'10510FL  570500','FL  ','CHS','FL0493','3','M5M6M7<br>','18',' ','','',' '"
p757
aS"'10510FL  581800','FL  ','CHS','SH0023','3','RnR5R6<br>','18',' ','','',' '"
p758
aS"'10510FL  581900','FL  ','CHS','NT1399','3','W3W4Wn<br>','18',' ','','',' '"
p759
aS"'10510FL  600100','FL  ','CHS','SS0001','2',' ',' ',' ','','',' '"
p760
aS"'10510GEC 110100','GEC ','','CK0865','3','W9WaWb<br>','0','*1','3','','GEC'"
p761
aS"'10510GEC 110201','GEC ','','CK0893','3','F2F3F4<br>','60','*1','3','','GEC'"
p762
aS"'10510GEC 110202','GEC ','','CK0893','3','R2R3R4<br>','60','*1','3','','GEC'"
p763
aS"'10510GEC 110500','GEC ','','CK0953','2','F3F4<br>','40','*1','3','','GEC'"
p764
aS"'10510GEC 160300','GEC ','','NT2708','2','T5T6<br>','50','*1','3','Y','GEC'"
p765
aS"'10510GEC 161200','GEC ','','NT2707','2','T1T2<br>','50','*1','3','Y','GEC'"
p766
aS"'10510GEC 120200','GEC ','','CK0867','2','M3M4<br>','90','*1','3','','GEC'"
p767
aS"'10510GEC 120301','GEC ','','CK0983','3','RnR5R6<br>','50','*1','3','Y','GEC'"
p768
aS"'10510GEC 120302','GEC ','','CK0983','3','M7M8M9<br>','0','*1','3','Y','GEC'"
p769
aS"'10510GEC 120303','GEC ','','CK0983','3','MnM5M6<br>','150','*1','3','Y','GEC'"
p770
aS"'10510GEC 120304','GEC ','','CK0983','3','T3T4Tn<br>','0','*1','3','Y','GEC'"
p771
aS"'10510GEC 120305','GEC ','','CK0983','3','T7T8T9<br>','50','*1','3','Y','GEC'"
p772
aS"'10510LS  114300','LS  ','LSCO','NT0037','2','T7T8<br>','200','*1','3','','GEC'"
p773
aS"'10510GEC 130102','GEC ','','CK0735','3','R3R4Rn<br>','0','*1','3','','GEC'"
p774
aS"'10510GEC 130201','GEC ','','SH0132','2','R4Rn<br>','80','*1','3','Y','GEC'"
p775
aS"'10510GEC 130202','GEC ','','SH0132','2','R5R6<br>','80','*1','3','Y','GEC'"
p776
aS"'10510GEC 130401','GEC ','','CK0934','3','T7T8T9<br>','50','*1','3','','GEC'"
p777
aS"'10510GEC 130402','GEC ','','CK0934','3','W3W4Wn<br>','50','*1','3','','GEC'"
p778
aS"'10510GEC 130403','GEC ','','CK0934','3','R7R8R9<br>','50','*1','3','','GEC'"
p779
aS"'10510GEC 130501','GEC ','','NT2593','2','W5W6<br>','0','*1','3','','GEC'"
p780
aS"'10510GEC 130600','GEC ','','NT2628','3','W7W8W9<br>','0','*1','3','','GEC'"
p781
aS"'10510GEC 130700','GEC ','','NT2416','3','M5M6M7<br>','60','*1','3','','GEC'"
p782
aS"'10510GEC 160100','GEC ','','NT2709','2','R5R6<br>','0','*1','3','Y','GEC'"
p783
aS"'10510GEC 160201','GEC ','','NT2699','2','F7F8<br>','50','*1','3','Y','GEC'"
p784
aS"'10510GEC 160202','GEC ','','NT2699','2','R7R8<br>','50','*1','3','Y','GEC'"
p785
aS"'10510GEC 160500','GEC ','','NT2700','2','R3R4<br>','45','*1','3','Y','GEC'"
p786
aS"'10510GEC 160600','GEC ','','NT2701','2','R7R8<br>','60','*1','3','Y','GEC'"
p787
aS"'10510GEC 160700','GEC ','','NT2702','2','T3T4<br>','50','*1','3','Y','GEC'"
p788
aS"'10510GEC 160800','GEC ','','NT2703','3','M5M6M7<br>','30','*1','3','','GEC'"
p789
aS"'10510GEC 160900','GEC ','','NT2704','3','M2M3M4<br>','30','*1','3','','GEC'"
p790
aS"'10510GEC 161000','GEC ','','NT2705','2','W3W4<br>','50','*1','3','Y','GEC'"
p791
aS"'10510GEC 161100','GEC ','','NT2706','2','M7M8<br>','50','*1','3','','GEC'"
p792
aS"'10510ECON100101','ECON','COTM','EC0035','3','M7M8M9<br>','170','*3','3','','GEC'"
p793
aS"'10510ECON100102','ECON','COTM','EC0035','3','F7F8F9<br>','100','*3','3','','GEC'"
p794
aS"'10510ECON100103','ECON','COTM','EC0035','3','M3M4W2<br>','100','*3','3','','GEC'"
p795
aS"'10510ECON100104','ECON','COTM','EC0035','3','F3F4Fn<br>','100','*3','3','','GEC'"
p796
aS"'10510ECON100105','ECON','COTM','EC0035','3','R3R4Rn<br>','100','*3','3','','GEC'"
p797
aS"'10510ECON100106','ECON','COTM','EC0035','3','M3M4Mn<br>','100','*3','3','','GEC'"
p798
aS"'10510ECON100107','ECON','COTM','EC0035','3','W3W4F3F4<br>','50','*3','3','','GEC'"
p799
aS"'10510ECON100300','ECON','COTM','CC0018','3','M7M8M9<br>','90','*1','3','','GEC'"
p800
aS"'10510GEC 140100','GEC ','','CK0877','3','T2T3T4<br>','60','*1','3','','GEC'"
p801
aS"'10510GEC 140201','GEC ','','CK0876','3','T3T4Tn<br>','50','*1','3','','GEC'"
p802
aS"'10510GEC 140202','GEC ','','CK0876','3','W7W8W9<br>','50','*1','3','','GEC'"
p803
aS"'10510GEC 140301','GEC ','','NT2629','3','W2W3W4<br>','60','*1','3','Y','GEC'"
p804
aS"'10510GEC 140302','GEC ','','NT2629','2','T7T8<br>','60','*1','3','Y','DL'"
p805
aS"'10510GEC 140400','GEC ','','NT2288','3','W2W3W4<br>','50','*1','3','Y','GEC'"
p806
aS"'10510GEC 150100','GEC ','','HI0173','3','M2M3M4<br>','85','*1','3','','GEC'"
p807
aS"'10510GEC 150201','GEC ','','HI0246','3','R7R8R9<br>','50','*1','3','','GEC'"
p808
aS"'10510GEC 150202','GEC ','','HI0246','3','T7T8T9<br>','0','*1','3','','GEC'"
p809
aS"'10510GEC 150203','GEC ','','HI0246','3','R3R4Rn<br>','0','*1','3','','GEC'"
p810
aS"'10510GEC 150400','GEC ','','CK0922','3','T6T7T8<br>','150','*1','3','','GEC'"
p811
aS"'10510HIS 212100','HIS ','CHS','NT2663','2','T7T8<br>','65','*1','3','Y','GEC'"
p812
aS"'10510HIS 233100','HIS ','CHS','NT2387','2','W1W2<br>','30','*1','3','Y','GEC'"
p813
aS"'10510HIS 233300','HIS ','CHS','NT239','2','T5T6<br>','80','*1','3','Y','GEC'"
p814
aS"'10510HIS 233500','HIS ','CHS','NT2587','2','W3W4<br>','30','*1','3','Y','GEC'"
p815
aS"'10510HSS 110000','HSS ','CHS','WW1737','3','T7T8T9<br>','40','*7','3','','GEC'"
p816
aS"'10510HSS 310100','HSS ','CHS','SH0181','3','F6F7F8<br>','20','*7','3','','GEC'"
p817
aS"'10510BMES433100','BMES','NUCL','NS0274','2','R7R8<br>','92','*1','3','',' '"
p818
aS"'10510GE  115100','GE  ','','CK0549','2','T7T8<br>','40','*1','3','',' '"
p819
aS"'10510LS  321000','LS  ','LSCO','NT2178','2','W7W8<br>','50','*3','3','',' '"
p820
aS"'10510PHYS241000','PHYS','SCI','PH0138','3','M7M8M9<br>','100','*7','3','',' '"
p821
aS"'10510GE  102200','GE  ','','CK0736','2','M7M8<br>','60','*1','3','',' '"
p822
aS"'10510GE  103200','GE  ','','CK0481','2','M3M4<br>','70','*1','3','',' '"
p823
aS"'10510GE  107200','GE  ','','NT1968','3','F3F4Fn<br>','134','*1','3','',' '"
p824
aS"'10510GE  108200','GE  ','','TMP604','2','WaWb<br>','0','*1','3','',' '"
p825
aS"'10510GE  172200','GE  ','','CK0962','2','WaWb<br>','50','*1','3','',' '"
p826
aS"'10510GE  178200','GE  ','','NT0605','3','R2R3R4<br>','150','*1','3','',' '"
p827
aS"'10510GE  180200','GE  ','','NT0659','2','M1M2<br>','50','*1','3','',' '"
p828
aS"'10510GE  183200','GE  ','','NT2405','2','M3M4<br>','45','*1','3','',' '"
p829
aS"'10510LS  114000','LS  ','LSCO','NT0733','2','W3W4<br>','30','*1','3','Y',' '"
p830
aS"'10510CHE 453000','CHE ','ENGI','CE0305','3','F2F3F4<br>','50','*7','3','',' '"
p831
aS"'10510GE  100200','GE  ','','EA0028','2','W5W6<br>','263','*1','3','',' '"
p832
aS"'10510GE  115500','GE  ','','NT1994','2','T5T6<br>','80','*1','3','',' '"
p833
aS"'10510GE  184200','GE  ','','TMP602','3','WnW5W6<br>','90','*1','3','',' '"
p834
aS"'10510GE  197200','GE  ','','NT2414','3','M7M8M9<br>','30','*1','3','',' '"
p835
aS"'10510GE  101300','GE  ','','CK0442','2','R5R6<br>','60','*1','3','',' '"
p836
aS"'10510GE  107300','GE  ','','CK0942','2','R7R8<br>','50','*1','3','',' '"
p837
aS"'10510GE  111300','GE  ','','NT1696','2','T5T6<br>','60','*1','3','',' '"
p838
aS"'10510GE  126300','GE  ','','CK0703','2','T3T4<br>','50','*1','3','',' '"
p839
aS"'10510GE  141300','GE  ','','CK0970','2','W1W2<br>','120','*1','3','',' '"
p840
aS"'10510GE  145300','GE  ','','NT2007','3','W5W6W7<br>','0','*1','3','',' '"
p841
aS"'10510GE  147300','GE  ','','NT2289','2','T7T8<br>','60','*1','3','',' '"
p842
aS"'10510GE  148300','GE  ','','NT2329','2','T5T6<br>','50','*1','3','',' '"
p843
aS"'10510GE  149300','GE  ','','NT2437','2','W7W8<br>','150','*1','3','',' '"
p844
aS"'10510LST 350100','LST ','COTM','LA0184','2','R3R4<br>','85','*1','3','',' '"
p845
aS"'10510LST 350301','LST ','COTM','CC0048','3','T7T8T9<br>','160','*3','3','',' '"
p846
aS"'10510LST 350302','LST ','COTM','CC0048','3','M7M8M9<br>','100','*3','3','',' '"
p847
aS"'10510GE  111400','GE  ','','NT2175','2','W3W4<br>','30','*1','3','',' '"
p848
aS"'10510GE  132700','GE  ','','HI0347','2','M5M6<br>','60','*1','3','',' '"
p849
aS"'10510GE  139400','GE  ','','CK1015','3','M7M8M9<br>','40','*1','3','',' '"
p850
aS"'10510GE  151400','GE  ','','NT0671','2','W5W6<br>','50','*1','3','',' '"
p851
aS"'10510GE  158400','GE  ','','NT2290','2','W7W8<br>','50','*1','3','',' '"
p852
aS"'10510GE  160400','GE  ','','NT2409','2','W5W6<br>','150','*1','3','',' '"
p853
aS"'10510GE  163400','GE  ','','NT2583','3','R3R4Rn<br>','0','*1','3','',' '"
p854
aS"'10510GE  170400','GE  ','','CK0800','2','F5F6<br>','35','*1','3','',' '"
p855
aS"'10510GE  171400','GE  ','','NT0897','2','M7M8<br>','50','*1','3','',' '"
p856
aS"'10510GE  190400','GE  ','','NT0853','2','WaWb<br>','0','*1','3','',' '"
p857
aS"'10510HSS 140000','HSS ','CHS','SH0010','3','W7W8W9<br>','100','*7','3','',' '"
p858
aS"'10510HSS 150000','HSS ','CHS','SH0129','3','T2T3T4<br>','60','*7','3','',' '"
p859
aS"'10510HSS 180000','HSS ','CHS','NT0573','3','W3W4Wn<br>','60','*7','3','',' '"
p860
aS"'10510HSS 270000','HSS ','CHS','SH0182','3','R7R8R9<br>','100','*7','3','',' '"
p861
aS"'10510HSS 343400','HSS ','CHS','CK0998','3','M7M8M9<br>','90','*7','3','',' '"
p862
aS"'10510HSS 350400','HSS ','CHS','SH0176','3','T7T8T9<br>','30','*7','3','',' '"
p863
aS"'10510HSS 370100','HSS ','CHS','SH0045','3','W2W3W4<br>','25','*7','3','',' '"
p864
aS"'10510HSS 371400','HSS ','CHS','SH0174','3','F3F4Fn<br>','30','*7','3','',' '"
p865
aS"'10510HSS 391000','HSS ','CHS','NT2090','3','T3T4Tn<br>','25','*7','3','',' '"
p866
aS"'10510TE  202101','TE  ','','TE0003','2','T3T4<br>','30','*6','3','',' '"
p867
aS"'10510TE  224400','TE  ','','TE0327','2','R3R4<br>','40','*6','3','',' '"
p868
aS"'10510GE  113500','GE  ','','CK0794','2','F7F8<br>','45','*1','3','',' '"
p869
aS"'10510GE  118500','GE  ','','CK0826','2','R5R6<br>','260','*1','3','',' '"
p870
aS"'10510GE  120500','GE  ','','CK0310','3','R7R8R9<br>','30','*1','3','',' '"
p871
aS"'10510GE  122500','GE  ','','CK0901','2','M3M4<br>','40','*1','3','',' '"
p872
aS"'10510GE  124500','GE  ','','WW0051','3','W7W8W9<br>','60','*1','3','',' '"
p873
aS"'10510GE  130500','GE  ','','CK0952','3','F5F6F7<br>','40','*1','3','',' '"
p874
aS"'10510GE  135500','GE  ','','NT0882','2','W1W2<br>','0','*1','3','',' '"
p875
aS"'10510GE  136500','GE  ','','NT1083','2','T5T6<br>','50','*1','3','',' '"
p876
aS"'10510GE  137500','GE  ','','NT1130','2','R1R2<br>','0','*1','3','',' '"
p877
aS"'10510GE  140500','GE  ','','NT2413','2','TaTb<br>','70','*1','3','',' '"
p878
aS"'10510GE  185400','GE  ','','NT1006','2','T3T4<br>','0','*1','3','',' '"
p879
aS"'10510GE  186400','GE  ','','NT2412','3','R7R8R9<br>','40','*1','3','',' '"
p880
aS"'10510GE  199400','GE  ','','WW1264','2','T1T2<br>','0','*1','3','',' '"
p881
aS"'10510TM  200201','TM  ','COTM','WW0142','3','T7T8T9<br>','50','*3','3','',' '"
p882
aS"'10510TM  200202','TM  ','COTM','WW0142','3','W7W8W9<br>','50','*3','3','',' '"
p883
aS"'10510TM  200203','TM  ','COTM','WW0142','3','R7R8R9<br>','50','*3','3','',' '"
p884
aS"'10510CL  490900','CL  ','CHS','CL0705','3','R3R4Rn<br>','50','*7','3','',' '"
p885
aS"'10510GE  101600','GE  ','','CK0954','2','M7M8<br>','40','*1','3','',' '"
p886
aS"'10510GE  102600','GE  ','','NE2626','3','T7T8T9<br>','0','*1','3','',' '"
p887
aS"'10510GE  103600','GE  ','','CK0997','2','M5M6<br>','50','*1','3','',' '"
p888
aS"'10510GE  116600','GE  ','','NT1157','2','R5R6<br>','0','*1','3','',' '"
p889
aS"'10510GE  118600','GE  ','','CK0354','2','R5R6<br>','60','*1','3','',' '"
p890
aS"'10510GE  122600','GE  ','','CK0087','2','M7M8<br>','50','*1','3','',' '"
p891
aS"'10510GE  123600','GE  ','','NT1534','2','T5T6<br>','40','*1','3','',' '"
p892
aS"'10510GE  124600','GE  ','','NT2172','3','W3W4Wn<br>','90','*1','3','',' '"
p893
aS"'10510GE  125600','GE  ','','NT0162','2','M7M8<br>','50','*1','3','',' '"
p894
aS"'10510GE  126600','GE  ','','TMP587','3','F5F6F7<br>','50','*1','3','',' '"
p895
aS"'10510GE  132600','GE  ','','NT2574','3','W7W8W9<br>','90','*1','3','',' '"
p896
aS"'10510GE  135600','GE  ','','CK0946','2','M5M6<br>','50','*1','3','',' '"
p897
aS"'10510GE  136600','GE  ','','NT1444','2','M1M2<br>','40','*1','3','',' '"
p898
aS"'10510GE  142600','GE  ','','NT1448','2','R7R8<br>','0','*1','3','',' '"
p899
aS"'10510GE  150600','GE  ','','CK0184','2','M5M6<br>','110','*1','3','',' '"
p900
aS"'10510GE  154600','GE  ','','CK0965','2','M3M4<br>','15','*1','3','',' '"
p901
aS"'10510GE  155600','GE  ','','CK0964','2','F3F4<br>','80','*1','3','',' '"
p902
aS"'10510GE  156600','GE  ','','NT2431','2','F5F6<br>','50','*1','3','',' '"
p903
aS"'10510GE  157600','GE  ','','NT2436','2','F3F4<br>','40','*1','3','',' '"
p904
aS"'10510GE  199600','GE  ','','CK0959','2','F5F6<br>','60','*1','3','',' '"
p905
aS"'10510HIS 231700','HIS ','CHS','HI0379','2','F3F4<br>','25','*1','3','',' '"
p906
aS"'10510GE  106600','GE  ','','CK1007','2','R5R6R7R8<br>','25','*1','3','',' '"
p907
aS"'10510GE  107600','GE  ','','CK0948','2','W5W6W7W8<br>','25','*1','3','',' '"
p908
aS"'10510GE  108600','GE  ','','CK0316','2','T5T6T7T8<br>','30','*1','3','',' '"
p909
aS"'10510GE  109601','GE  ','','CK1003','2','M1M2M3M4<br>','30','*1','3','Y',' '"
p910
aS"'10510GE  109602','GE  ','','CK1003','2','M5M6M7M8<br>','30','*1','3','Y',' '"
p911
aS"'10510GE  109603','GE  ','','CK1003','2','T5T6T7T8<br>','30','*1','3','Y',' '"
p912
aS"'10510GE  114600','GE  ','','CK0972','1','WaWb<br>','25','*1','3','',' '"
p913
aS"'10510GE  119600','GE  ','','CK0747','1','T5T6<br>','25','*1','3','',' '"
p914
aS"'10510GE  120600','GE  ','','CK0368','2','M5M6M7M8<br>','25','*1','3','',' '"
p915
aS"'10510GE  125700','GE  ','','CK0545','2','W5W6<br>','55','*1','3','',' '"
p916
aS"'10510GE  153700','GE  ','','CK0945','2','W7W8<br>','55','*1','3','',' '"
p917
aS"'10510GE  163700','GE  ','','NT2712','2','T7T8<br>','50','*1','3','Y',' '"
p918
aS"'10510GE  164700','GE  ','','NT2711','2','F3F4<br>','50','*1','3','Y',' '"
p919
aS"'10510HSS 101102','HSS ','CHS','SH0006','3','M3M4Mn<br>','60','*7','3','',' '"
p920
aS"'10510HSS 220000','HSS ','CHS','SH0013','3','W3W4Wn<br>','60','*7','3','',' '"
p921
aS"'10510HSS 220300','HSS ','CHS','PL0041','3','T3T4Tn<br>','60','*7','3','',' '"
p922
aS"'10510HSS 220900','HSS ','CHS','NT2639','3','W3W4Wn<br>','30','*7','3','',' '"
p923
aS"'10510HSS 221000','HSS ','CHS','NT2640','3','F3F4Fn<br>','60','*7','3','',' '"
p924
aS"'10510HSS 320800','HSS ','CHS','SH0075','3','M7M8M9<br>','30','*7','3','',' '"
p925
aS"'10510HSS 320900','HSS ','CHS','PL0017','3','W5W6W7<br>','0','*7','3','',' '"
p926
aS"'10510GE  130800','GE  ','','NT2454','3','F7F8F9<br>','40','*1','3','',' '"
p927
aS"'10510GE  131802','GE  ','','CL0634','2','M5M6<br>','50','*1','3','',' '"
p928
aS"'10510HIS 110900','HIS ','CHS','HA0021','2','T5T6<br>','120','*1','3','',' '"
p929
aS"'10510HIS 232700','HIS ','CHS','NT1189','2','F3F4<br>','80','*1','3','',' '"
p930
aS"'10510HIS 240200','HIS ','CHS','HA0043','2','F1F2<br>','120','*1','3','',' '"
p931
aS"'10510HIS 260500','HIS ','CHS','HK0004','2','W3W4<br>','80','*1','3','',' '"
p932
aS"'10510HSS 211700','HSS ','CHS','HI0391','3','T7T8T9<br>','60','*7','3','',' '"
p933
aS"'10510HSS 290000','HSS ','CHS','CL0481','3','W3W4Wn<br>','50','*7','3','',' '"
p934
aS"'10510HSS 310300','HSS ','CHS','HA0010','3','M7M8M9<br>','30','*7','3','',' '"
p935
aS"'10510HSS 310400','HSS ','CHS','NT0555','3','F3F4Fn<br>','25','*7','3','',' '"
p936
aS"'10510HSS 311300','HSS ','CHS','NT0861','3','T3T4Tn<br>','30','*7','3','',' '"
p937
aS"'10510HSS 311900','HSS ','CHS','NT0073','3','T7T8T9<br>','60','*7','3','',' '"
p938
aS"'10510HSS 330100','HSS ','CHS','SH0124','3','R7R8R9<br>','30','*7','3','',' '"
p939
aS"'10510HSS 372500','HSS ','CHS','NT0856','3','M7M8M9<br>','55','*7','3','',' '"
p940
aS"'10510HSS 391300','HSS ','CHS','NT0858','3','F5F6F7<br>','15','*7','3','',' '"
p941
aS"'10510GEC 110100','GEC ','','CK0865','3','W9WaWb<br>','0','*1','3','','GEC'"
p942
aS"'10510GEC 110201','GEC ','','CK0893','3','F2F3F4<br>','60','*1','3','','GEC'"
p943
aS"'10510GEC 110202','GEC ','','CK0893','3','R2R3R4<br>','60','*1','3','','GEC'"
p944
aS"'10510GEC 110500','GEC ','','CK0953','2','F3F4<br>','40','*1','3','','GEC'"
p945
aS"'10510GEC 160300','GEC ','','NT2708','2','T5T6<br>','50','*1','3','Y','GEC'"
p946
aS"'10510GEC 161200','GEC ','','NT2707','2','T1T2<br>','50','*1','3','Y','GEC'"
p947
aS"'10510GEC 120200','GEC ','','CK0867','2','M3M4<br>','90','*1','3','','GEC'"
p948
aS"'10510GEC 120301','GEC ','','CK0983','3','RnR5R6<br>','50','*1','3','Y','GEC'"
p949
aS"'10510GEC 120302','GEC ','','CK0983','3','M7M8M9<br>','0','*1','3','Y','GEC'"
p950
aS"'10510GEC 120303','GEC ','','CK0983','3','MnM5M6<br>','150','*1','3','Y','GEC'"
p951
aS"'10510GEC 120304','GEC ','','CK0983','3','T3T4Tn<br>','0','*1','3','Y','GEC'"
p952
aS"'10510GEC 120305','GEC ','','CK0983','3','T7T8T9<br>','50','*1','3','Y','GEC'"
p953
aS"'10510LS  114300','LS  ','LSCO','NT0037','2','T7T8<br>','200','*1','3','','GEC'"
p954
aS"'10510GEC 130102','GEC ','','CK0735','3','R3R4Rn<br>','0','*1','3','','GEC'"
p955
aS"'10510GEC 130201','GEC ','','SH0132','2','R4Rn<br>','80','*1','3','Y','GEC'"
p956
aS"'10510GEC 130202','GEC ','','SH0132','2','R5R6<br>','80','*1','3','Y','GEC'"
p957
aS"'10510GEC 130401','GEC ','','CK0934','3','T7T8T9<br>','50','*1','3','','GEC'"
p958
aS"'10510GEC 130402','GEC ','','CK0934','3','W3W4Wn<br>','50','*1','3','','GEC'"
p959
aS"'10510GEC 130403','GEC ','','CK0934','3','R7R8R9<br>','50','*1','3','','GEC'"
p960
aS"'10510GEC 130501','GEC ','','NT2593','2','W5W6<br>','0','*1','3','','GEC'"
p961
aS"'10510GEC 130600','GEC ','','NT2628','3','W7W8W9<br>','0','*1','3','','GEC'"
p962
aS"'10510GEC 130700','GEC ','','NT2416','3','M5M6M7<br>','60','*1','3','','GEC'"
p963
aS"'10510GEC 160100','GEC ','','NT2709','2','R5R6<br>','0','*1','3','Y','GEC'"
p964
aS"'10510GEC 160201','GEC ','','NT2699','2','F7F8<br>','50','*1','3','Y','GEC'"
p965
aS"'10510GEC 160202','GEC ','','NT2699','2','R7R8<br>','50','*1','3','Y','GEC'"
p966
aS"'10510GEC 160500','GEC ','','NT2700','2','R3R4<br>','45','*1','3','Y','GEC'"
p967
aS"'10510GEC 160600','GEC ','','NT2701','2','R7R8<br>','60','*1','3','Y','GEC'"
p968
aS"'10510GEC 160700','GEC ','','NT2702','2','T3T4<br>','50','*1','3','Y','GEC'"
p969
aS"'10510GEC 160800','GEC ','','NT2703','3','M5M6M7<br>','30','*1','3','','GEC'"
p970
aS"'10510GEC 160900','GEC ','','NT2704','3','M2M3M4<br>','30','*1','3','','GEC'"
p971
aS"'10510GEC 161000','GEC ','','NT2705','2','W3W4<br>','50','*1','3','Y','GEC'"
p972
aS"'10510GEC 161100','GEC ','','NT2706','2','M7M8<br>','50','*1','3','','GEC'"
p973
aS"'10510ECON100101','ECON','COTM','EC0035','3','M7M8M9<br>','170','*3','3','','GEC'"
p974
aS"'10510ECON100102','ECON','COTM','EC0035','3','F7F8F9<br>','100','*3','3','','GEC'"
p975
aS"'10510ECON100103','ECON','COTM','EC0035','3','M3M4W2<br>','100','*3','3','','GEC'"
p976
aS"'10510ECON100104','ECON','COTM','EC0035','3','F3F4Fn<br>','100','*3','3','','GEC'"
p977
aS"'10510ECON100105','ECON','COTM','EC0035','3','R3R4Rn<br>','100','*3','3','','GEC'"
p978
aS"'10510ECON100106','ECON','COTM','EC0035','3','M3M4Mn<br>','100','*3','3','','GEC'"
p979
aS"'10510ECON100107','ECON','COTM','EC0035','3','W3W4F3F4<br>','50','*3','3','','GEC'"
p980
aS"'10510ECON100300','ECON','COTM','CC0018','3','M7M8M9<br>','90','*1','3','','GEC'"
p981
aS"'10510GEC 140100','GEC ','','CK0877','3','T2T3T4<br>','60','*1','3','','GEC'"
p982
aS"'10510GEC 140201','GEC ','','CK0876','3','T3T4Tn<br>','50','*1','3','','GEC'"
p983
aS"'10510GEC 140202','GEC ','','CK0876','3','W7W8W9<br>','50','*1','3','','GEC'"
p984
aS"'10510GEC 140301','GEC ','','NT2629','3','W2W3W4<br>','60','*1','3','Y','GEC'"
p985
aS"'10510GEC 140400','GEC ','','NT2288','3','W2W3W4<br>','50','*1','3','Y','GEC'"
p986
aS"'10510GEC 150100','GEC ','','HI0173','3','M2M3M4<br>','85','*1','3','','GEC'"
p987
aS"'10510GEC 150201','GEC ','','HI0246','3','R7R8R9<br>','50','*1','3','','GEC'"
p988
aS"'10510GEC 150202','GEC ','','HI0246','3','T7T8T9<br>','0','*1','3','','GEC'"
p989
aS"'10510GEC 150203','GEC ','','HI0246','3','R3R4Rn<br>','0','*1','3','','GEC'"
p990
aS"'10510GEC 150400','GEC ','','CK0922','3','T6T7T8<br>','150','*1','3','','GEC'"
p991
aS"'10510HIS 212100','HIS ','CHS','NT2663','2','T7T8<br>','65','*1','3','Y','GEC'"
p992
aS"'10510HIS 233100','HIS ','CHS','NT2387','2','W1W2<br>','30','*1','3','Y','GEC'"
p993
aS"'10510HIS 233300','HIS ','CHS','NT239','2','T5T6<br>','80','*1','3','Y','GEC'"
p994
aS"'10510HIS 233500','HIS ','CHS','NT2587','2','W3W4<br>','30','*1','3','Y','GEC'"
p995
aS"'10510HSS 110000','HSS ','CHS','WW1737','3','T7T8T9<br>','40','*7','3','','GEC'"
p996
aS"'10510HSS 310100','HSS ','CHS','SH0181','3','F6F7F8<br>','20','*7','3','','GEC'"
p997
aS"'10510GOM 551800','GOM ','ENGI','EM0038','3',' ','0',' ','','',' '"
p998
aS"'10510GOM 553000','GOM ','ENGI','TMP605','3',' ','0',' ','','',' '"
p999
aS"'10510GPTS511200','GPTS','CHS','NT2633','3','S5S6S7<br>',' ',' ','','',' '"
p1000
aS"'10510GPTS511300','GPTS','CHS','NT2670','3','WaWbWc<br>',' ',' ','','',' '"
p1001
aS"'10510GPTS520000','GPTS','CHS','CL0326','3','S2S3S4<br>',' ',' ','','',' '"
p1002
aS"'10510GPTS520900','GPTS','CHS','NT2634','3','FaFbFc<br>',' ',' ','','',' '"
p1003
aS"'10510GPTS540200','GPTS','CHS','NT2391','3','TaTbTc<br>',' ',' ','','',' '"
p1004
aS"'10510GPTS600000','GPTS','CHS','SS0001','2',' ',' ',' ','','',' '"
p1005
aS"'10510HIS 110900','HIS ','CHS','HA0021','2','T5T6<br>','120','*1','3','',' '"
p1006
aS"'10510HIS 212100','HIS ','CHS','NT2663','2','T7T8<br>','65','*1','3','Y','GEC'"
p1007
aS"'10510HIS 231700','HIS ','CHS','HI0379','2','F3F4<br>','25','*1','3','',' '"
p1008
aS"'10510HIS 232700','HIS ','CHS','NT1189','2','F3F4<br>','80','*1','3','',' '"
p1009
aS"'10510HIS 233100','HIS ','CHS','NT2387','2','W1W2<br>','30','*1','3','Y','GEC'"
p1010
aS"'10510HIS 233300','HIS ','CHS','NT239','2','T5T6<br>','80','*1','3','Y','GEC'"
p1011
aS"'10510HIS 233500','HIS ','CHS','NT2587','2','W3W4<br>','30','*1','3','Y','GEC'"
p1012
aS"'10510HIS 240200','HIS ','CHS','HA0043','2','F1F2<br>','120','*1','3','',' '"
p1013
aS"'10510HIS 260500','HIS ','CHS','HK0004','2','W3W4<br>','80','*1','3','',' '"
p1014
aS"'10510HIS 503600','HIS ','CHS','HI0277','3','M6M7M8<br>',' ',' ','','',' '"
p1015
aS"'10510HIS 504000','HIS ','CHS','HI0195','2','F3F4<br>',' ',' ','','',' '"
p1016
aS"'10510HIS 510000','HIS ','CHS','SH0119','3','F6F7F8<br>',' ',' ','','',' '"
p1017
aS"'10510HIS 557900','HIS ','CHS','NT2665','3','W2W3W4<br>',' ',' ','','',' '"
p1018
aS"'10510HIS 575800','HIS ','CHS','HI0335','3','F6F7F8<br>',' ',' ','','',' '"
p1019
aS"'10510HIS 578500','HIS ','CHS','NT1191','3','T2T3T4<br>',' ',' ','','',' '"
p1020
aS"'10510HIS 579100','HIS ','CHS','NT2694','3','R6R7R8<br>',' ',' ','','',' '"
p1021
aS"'10510HIS 611000','HIS ','CHS','NT1120','3','T6T7T8<br>',' ',' ','','',' '"
p1022
aS"'10510HIS 612000','HIS ','CHS','NT2666','3','M6M7M8<br>',' ',' ','','',' '"
p1023
aS"'10510HIS 680000','HIS ','CHS','SS0001','2',' ',' ',' ','','',' '"
p1024
aS"'10510HIS 800000','HIS ','CHS','SS0002','0',' ',' ',' ','','',' '"
p1025
aS"'10510HSS 100100','HSS ','CHS','NT0156','3','R3R4Rn<br>','100',' ','','',' '"
p1026
aS"'10510HSS 101102','HSS ','CHS','SH0006','3','M3M4Mn<br>','60','*7','3','',' '"
p1027
aS"'10510HSS 110000','HSS ','CHS','WW1737','3','T7T8T9<br>','40','*7','3','','GEC'"
p1028
aS"'10510HSS 140000','HSS ','CHS','SH0010','3','W7W8W9<br>','100','*7','3','',' '"
p1029
aS"'10510HSS 150000','HSS ','CHS','SH0129','3','T2T3T4<br>','60','*7','3','',' '"
p1030
aS"'10510HSS 180000','HSS ','CHS','NT0573','3','W3W4Wn<br>','60','*7','3','',' '"
p1031
aS"'10510HSS 200300','HSS ','CHS','NT2638','3','F3F4Fn<br>','60',' ','','',' '"
p1032
aS"'10510HSS 201200','HSS ','CHS','NT2637','3','W7W8W9<br>','30',' ','','',' '"
p1033
aS"'10510HSS 201800','HSS ','CHS','WW1528','2','M5M6<br>',' ',' ','','',' '"
p1034
aS"'10510HSS 211700','HSS ','CHS','HI0391','3','T7T8T9<br>','60','*7','3','',' '"
p1035
aS"'10510HSS 220000','HSS ','CHS','SH0013','3','W3W4Wn<br>','60','*7','3','',' '"
p1036
aS"'10510HSS 220300','HSS ','CHS','PL0041','3','T3T4Tn<br>','60','*7','3','',' '"
p1037
aS"'10510HSS 220900','HSS ','CHS','NT2639','3','W3W4Wn<br>','30','*7','3','',' '"
p1038
aS"'10510HSS 221000','HSS ','CHS','NT2640','3','F3F4Fn<br>','60','*7','3','',' '"
p1039
aS"'10510HSS 230200','HSS ','CHS','NT2089','3','F7F8F9<br>','30',' ','','',' '"
p1040
aS"'10510HSS 240100','HSS ','CHS','SN0057','3','W7W8W9<br>',' ',' ','','',' '"
p1041
aS"'10510HSS 240200','HSS ','CHS','SH0117','3','R3R4Rn<br>','35',' ','','',' '"
p1042
aS"'10510HSS 250200','HSS ','CHS','NT0023','3','R7R8R9<br>','35',' ','','',' '"
p1043
aS"'10510HSS 251700','HSS ','CHS','NT2059','2','M3M4<br>',' ',' ','','',' '"
p1044
aS"'10510HSS 270000','HSS ','CHS','SH0182','3','R7R8R9<br>','100','*7','3','',' '"
p1045
aS"'10510HSS 290000','HSS ','CHS','CL0481','3','W3W4Wn<br>','50','*7','3','',' '"
p1046
aS"'10510HSS 291000','HSS ','CHS','NT2066','3','R6R7R8<br>','25',' ','','',' '"
p1047
aS"'10510HSS 291200','HSS ','CHS','NT1424','3','M8M9Ma<br>','25',' ','','',' '"
p1048
aS"'10510HSS 300500','HSS ','CHS','NT2710','3','M7M8M9<br>',' ',' ','','',' '"
p1049
aS"'10510HSS 310100','HSS ','CHS','SH0181','3','F6F7F8<br>','20','*7','3','','GEC'"
p1050
aS"'10510HSS 310300','HSS ','CHS','HA0010','3','M7M8M9<br>','30','*7','3','',' '"
p1051
aS"'10510HSS 310400','HSS ','CHS','NT0555','3','F3F4Fn<br>','25','*7','3','',' '"
p1052
aS"'10510HSS 311300','HSS ','CHS','NT0861','3','T3T4Tn<br>','30','*7','3','',' '"
p1053
aS"'10510HSS 311500','HSS ','CHS','SH0165','3','F7F8F9<br>','60',' ','','',' '"
p1054
aS"'10510HSS 311900','HSS ','CHS','NT0073','3','T7T8T9<br>','60','*7','3','',' '"
p1055
aS"'10510HSS 313600','HSS ','CHS','NT2674','3','M3M4Mn<br>','30',' ','','',' '"
p1056
aS"'10510HSS 313700','HSS ','CHS','TMP418','3','M3M4Mn<br>',' ',' ','','',' '"
p1057
aS"'10510HSS 320800','HSS ','CHS','SH0075','3','M7M8M9<br>','30','*7','3','',' '"
p1058
aS"'10510HSS 320900','HSS ','CHS','PL0017','3','W5W6W7<br>','0','*7','3','',' '"
p1059
aS"'10510HSS 326100','HSS ','CHS','NT2642','3','M3M4Mn<br>','10',' ','','',' '"
p1060
aS"'10510HSS 330100','HSS ','CHS','SH0124','3','R7R8R9<br>','30','*7','3','',' '"
p1061
aS"'10510HSS 340100','HSS ','CHS','SH0047','3','T3T4Tn<br>',' ',' ','','',' '"
p1062
aS"'10510HSS 343400','HSS ','CHS','CK0998','3','M7M8M9<br>','90','*7','3','',' '"
p1063
aS"'10510HSS 344000','HSS ','CHS','NT1845','3','T5T6T7<br>',' ',' ','','',' '"
p1064
aS"'10510HSS 345300','HSS ','CHS','NT2404','2','TbTc<br>',' ',' ','','',' '"
p1065
aS"'10510HSS 345600','HSS ','CHS','TMP433','3','RaRbRc<br>',' ',' ','','',' '"
p1066
aS"'10510HSS 350200','HSS ','CHS','SH0063','3','M7M8M9<br>','30',' ','','Y',' '"
p1067
aS"'10510HSS 350400','HSS ','CHS','SH0176','3','T7T8T9<br>','30','*7','3','',' '"
p1068
aS"'10510HSS 352600','HSS ','CHS','SH0159','3','F3F4Fn<br>','30',' ','','',' '"
p1069
aS"'10510HSS 353100','HSS ','CHS','NT1453','3','F5F6F7<br>',' ',' ','','',' '"
p1070
aS"'10510HSS 354100','HSS ','CHS','WZ2915','3','W7W8W9<br>',' ',' ','','',' '"
p1071
aS"'10510HSS 370100','HSS ','CHS','SH0045','3','W2W3W4<br>','25','*7','3','',' '"
p1072
aS"'10510HSS 371400','HSS ','CHS','SH0174','3','F3F4Fn<br>','30','*7','3','',' '"
p1073
aS"'10510HSS 372500','HSS ','CHS','NT0856','3','M7M8M9<br>','55','*7','3','',' '"
p1074
aS"'10510HSS 391000','HSS ','CHS','NT2090','3','T3T4Tn<br>','25','*7','3','',' '"
p1075
aS"'10510HSS 391300','HSS ','CHS','NT0858','3','F5F6F7<br>','15','*7','3','',' '"
p1076
aS"'10510HSS 391500','HSS ','CHS','NT2636','3','T7T8T9<br>','25',' ','','',' '"
p1077
aS"'10510HSS 400000','HSS ','CHS','SH0139','1',' ',' ',' ','','',' '"
p1078
aS"'10510IACS500000','IACS','CHS','SS0001','2',' ',' ',' ','','',' '"
p1079
aS"'10510IACU587000','IACU','','NT2084','3','W5W6W7<br>',' ',' ','','',' '"
p1080
aS"'10510IACU590000','IACU','','NT1496','3','R5R6R7<br>',' ',' ','','',' '"
p1081
aS"'10510IACU591100','IACU','','TMP484','3','R3R4Rn<br>',' ',' ','','',' '"
p1082
aS"'10510IACU591200','IACU','','TMP490','3','T3T4Tn<br>',' ',' ','','',' '"
p1083
aS"'10510IACU591400','IACU','','TMP645','3','F3F4Fn<br>',' ',' ','','',' '"
p1084
aS"'10510IACU591500','IACU','','TMP483','2','WaWbWc<br>',' ',' ','','',' '"
p1085
aS"'10510IACU591800','IACU','','TMP644','3','F5F6F7<br>',' ',' ','','',' '"
p1086
aS"'10510IACU592000','IACU','','TMP646','3','M5M6M7M8<br>',' ',' ','','',' '"
p1087
aS"'10510IACU592100','IACU','','TMP647','3','T6T7T8<br>',' ',' ','','',' '"
p1088
aS"'10510IEEM101000','IEEM','ENGI','WW1489','3','R7R8R9<br>','80',' ','','',' '"
p1089
aS"'10510IEEM202100','IEEM','ENGI','MA0065','3','T4R3R4<br>','100',' ','','Y',' '"
p1090
aS"'10510IEEM203000','IEEM','ENGI','IE0050','3','W3W4F3<br>','80',' ','','Y',' '"
p1091
aS"'10510IEEM208000','IEEM','ENGI','IE0066','3','M5M6R5<br>','80',' ','','',' '"
p1092
aS"'10510IEEM281000','IEEM','ENGI','NE0010','3','M7M8M9<br>','80',' ','','',' '"
p1093
aS"'10510IEEM301000','IEEM','ENGI','IE0026','3','T7T8T9<br>','100',' ','','Y',' '"
p1094
aS"'10510IEEM303000','IEEM','ENGI','IE0035','3','T3T4R4<br>','80',' ','','Y',' '"
p1095
aS"'10510IEEM305000','IEEM','ENGI','IE0075','3','M3M4W2<br>','80',' ','','',' '"
p1096
aS"'10510IEEM305400','IEEM','ENGI','IE0146','3','M7M8M9<br>','50',' ','','',' '"
p1097
aS"'10510IEEM316000','IEEM','ENGI','IE0176','3','M7M8M9<br>','30',' ','','',' '"
p1098
aS"'10510IEEM401000','IEEM','ENGI','IE0239','2',' ',' ',' ','','',' '"
p1099
aS"'10510IEEM480000','IEEM','ENGI','IE0127','3','W7W8W9<br>','50',' ','','',' '"
p1100
aS"'10510IEEM500000','IEEM','ENGI','SS0003','1','W6W7<br>','99',' ','','',' '"
p1101
aS"'10510IEEM510300','IEEM','ENGI','AM0036','3','M2M3M4<br>','50',' ','','',' '"
p1102
aS"'10510IEEM510800','IEEM','ENGI','MA0049','3','T7T8T9<br>','50',' ','','',' '"
p1103
aS"'10510IEEM511700','IEEM','ENGI','IE0126','3','M6M7M8<br>','50',' ','','',' '"
p1104
aS"'10510IEEM512700','IEEM','ENGI','NE0022','3','F2F3F4<br>','50',' ','','',' '"
p1105
aS"'10510IEEM523700','IEEM','ENGI','IE0178','3','R6R7R8<br>','50',' ','','',' '"
p1106
aS"'10510IEEM523900','IEEM','ENGI','WW0825','3','F7F8F9<br>','50',' ','','',' '"
p1107
aS"'10510IEEM531100','IEEM','ENGI','PM0066','3','W2W3W4<br>','50',' ','','',' '"
p1108
aS"'10510IEEM535200','IEEM','ENGI','IE0250','3','R2R3R4<br>','50',' ','','',' '"
p1109
aS"'10510IEEM536900','IEEM','ENGI','ST0014','3','T2T3T4<br>','50',' ','','',' '"
p1110
aS"'10510IEEM543000','IEEM','ENGI','IE0229','3','W2W3W4<br>','50',' ','','',' '"
p1111
aS"'10510IEEM545100','IEEM','ENGI','EM0038','3','M6M7M8<br>','50',' ','','',' '"
p1112
aS"'10510IEEM552300','IEEM','ENGI','IE0205','3','FaFbFc<br>','50',' ','','',' '"
p1113
aS"'10510IEEM555100','IEEM','ENGI','NT0089','3','WaWbWc<br>','30',' ','','',' '"
p1114
aS"'10510IEEM560600','IEEM','ENGI','NT2635','3','MaMbMc<br>','50',' ','','',' '"
p1115
aS"'10510IEEM580000','IEEM','ENGI','NT2397','3','MaMbMc<br>','50',' ','','',' '"
p1116
aS"'10510IEEM600000','IEEM','ENGI','SS0001','2',' ',' ',' ','','',' '"
p1117
aS"'10510IEEM630300','IEEM','ENGI','NT2120','3','TaTbTc<br>','0',' ','','',' '"
p1118
aS"'10510IEEM700000','IEEM','ENGI','SS0002','0',' ',' ',' ','','',' '"
p1119
aS"'10510IEM 500000','IEM ','ENGI','SS0001','2',' ',' ',' ','','',' '"
p1120
aS"'10510IEM 560500','IEM ','ENGI','IE0273','3','S2S3S4<br>','40',' ','','',' '"
p1121
aS"'10510IEM 561100','IEM ','ENGI','IE0275','3','FaFbFc<br>','60',' ','','',' '"
p1122
aS"'10510IEM 561300','IEM ','ENGI','NT2396','3','WaWbWc<br>','40',' ','','',' '"
p1123
aS"'10510IEM 561500','IEM ','ENGI','NT2377','3','S5S6S7<br>','40',' ','','',' '"
p1124
aS"'10510ILS 500100','ILS ','THC','IL0002','3','W2W3W4<br>',' ',' ','','',' '"
p1125
aS"'10510ILS 500200','ILS ','THC','SS0020','1','R7R8<br>',' ',' ','','',' '"
p1126
aS"'10510ILS 500600','ILS ','THC','FL0086','3','W7W8W9<br>',' ',' ','','',' '"
p1127
aS"'10510ILS 511100','ILS ','THC','NT1268','3','T7T8T9<br>',' ',' ','','',' '"
p1128
aS"'10510ILS 511400','ILS ','THC','NT1510','3','R2R3R4<br>',' ',' ','','',' '"
p1129
aS"'10510ILS 520400','ILS ','THC','NT0582','3','T2T3T4<br>',' ',' ','','',' '"
p1130
aS"'10510ILS 520500','ILS ','THC','NT2009','2','R5R6<br>',' ',' ','','',' '"
p1131
aS"'10510ILS 520900','ILS ','THC','NT210','3','WnW5W6<br>','20',' ','','',' '"
p1132
aS"'10510ILS 600000','ILS ','THC','SS0001','2',' ',' ',' ','','',' '"
p1133
aS"'10510IMBA500000','IMBA','COTM','SS0001','2',' ',' ',' ','','',' '"
p1134
aS"'10510IPE 100300','IPE ','ENGI','NE0314','1','T9<br>','60',' ','','',' '"
p1135
aS"'10510IPHD700100','IPHD','NTHU','SS0003','1','R7R8<br>',' ',' ','','',' '"
p1136
aS"'10510IPNS300100','IPNS','NUCL','NT0587','1',' ',' ',' ','','',' '"
p1137
aS"'10510IPNS400000','IPNS','NUCL','NE0314','1','M5M6<br>',' ',' ','','',' '"
p1138
aS"'10510IPNS401000','IPNS','NUCL','NS0148','1',' ',' ',' ','','',' '"
p1139
aS"'10510IPT 510000','IPT ','EECS','SS0001','2',' ',' ',' ','','',' '"
p1140
aS"'10510IPT 514000','IPT ','EECS','EE0002','3','M7M8M9<br>','135',' ','','',' '"
p1141
aS"'10510IPT 514201','IPT ','EECS','IP0023','3','W6W7W8<br>','20',' ','','',' '"
p1142
aS"'10510IPT 514202','IPT ','EECS','IP0023','3','R6R7R8<br>','20',' ','','',' '"
p1143
aS"'10510IPT 533000','IPT ','EECS','IP0009','3','T7T8R3<br>','30',' ','','',' '"
p1144
aS"'10510IPT 534000','IPT ','EECS','PH0083','3','M3M4W4<br>','30',' ','','',' '"
p1145
aS"'10510IPT 543000','IPT ','EECS','IP0013','3','T5T6R6<br>','46',' ','','',' '"
p1146
aS"'10510IPT 552000','IPT ','EECS','IP0021','3','TaTbTc<br>','20',' ','','',' '"
p1147
aS"'10510IPT 591000','IPT ','EECS','SS0003','1','F6F7<br>','135',' ','','',' '"
p1148
aS"'10510IPT 599000','IPT ','EECS','NT1463','3','T3T4R4<br>','20',' ','','',' '"
p1149
aS"'10510IPT 599300','IPT ','EECS','NT2675','3','W3F3F4<br>','46',' ','','',' '"
p1150
aS"'10510IPT 710000','IPT ','EECS','SS0002','0',' ',' ',' ','','',' '"
p1151
aS"'10510IPTH100100','IPTH','THC','NT1731','2','MaMb<br>',' ',' ','','',' '"
p1152
aS"'10510IPTH100200','IPTH','THC','SS0097','0','MaMb<br>',' ',' ','','',' '"
p1153
aS"'10510IPTH100300','IPTH','THC','NT2372','3','W3W4Wn<br>','12',' ','','',' '"
p1154
aS"'10510IPTH100400','IPTH','THC','NT2423','3','F2F3F4<br>','0',' ','','',' '"
p1155
aS"'10510IPTH100700','IPTH','THC','NT2676','2','WaWb<br>','10',' ','','',' '"
p1156
aS"'10510IPTH100800','IPTH','THC','TMP606','1','R9Ra<br>','70',' ','','',' '"
p1157
aS"'10510IPTH100900','IPTH','THC','TMP619','9',' ','0',' ','','',' '"
p1158
aS"'10510IPTH101000','IPTH','THC','TMP620','6',' ','0',' ','','',' '"
p1159
aS"'10510ISA 536200','ISA ','EECS','IS0008','3','R7F6F7<br>','25',' ','','',' '"
p1160
aS"'10510ISA 557700','ISA ','EECS','NT1478','3','R7R8F7<br>',' ',' ','','',' '"
p1161
aS"'10510ISA 557900','ISA ','EECS','NT1481','3','TnT5T6<br>','25',' ','','',' '"
p1162
aS"'10510ISA 565100','ISA ','EECS','SS0069','1','W5W6<br>',' ',' ','','',' '"
p1163
aS"'10510ISA 581000','ISA ','EECS','XZ0627','3','M5M6T5T6<br>','40',' ','','',' '"
p1164
aS"'10510ISA 582000','ISA ','EECS','TMP601','3','M5R8R9<br>','0',' ','','',' '"
p1165
aS"'10510ISA 590100','ISA ','EECS','IS0001','2',' ','0',' ','','',' '"
p1166
aS"'10510ISA 591100','ISA ','EECS','SS0089','1',' ','0',' ','','',' '"
p1167
aS"'10510ISA 612000','ISA ','EECS','IS0020','3','M3M4T3T4<br>','40',' ','','',' '"
p1168
aS"'10510ISA 690000','ISA ','EECS','SS0001','2',' ',' ',' ','','',' '"
p1169
aS"'10510ISA 890000','ISA ','EECS','SS0002','0',' ',' ',' ','','',' '"
p1170
aS"'10510ISS 500000','ISS ','COTM','SS0001','2',' ',' ',' ','','',' '"
p1171
aS"'10510ISS 500101','ISS ','COTM','SS0020','2','W6W7<br>','23',' ','','',' '"
p1172
aS"'10510ISS 500102','ISS ','COTM','SS0020','0','W6W7<br>','20',' ','','',' '"
p1173
aS"'10510ISS 500200','ISS ','COTM','IE0226','3',' ','20',' ','','',' '"
p1174
aS"'10510ISS 507000','ISS ','COTM','IS0028','3','M2M3M4<br>',' ',' ','','',' '"
p1175
aS"'10510ISS 507200','ISS ','COTM','IE0054','3','F6F7F8<br>','40',' ','','',' '"
p1176
aS"'10510ISS 507800','ISS ','COTM','NT2108','3','T6T7T8<br>',' ',' ','','',' '"
p1177
aS"'10510ISS 508600','ISS ','COTM','NT0528','3','R5R6R7<br>','38',' ','','',' '"
p1178
aS"'10510ISS 509100','ISS ','COTM','TMP585','3','T6T7T8<br>','30',' ','','',' '"
p1179
aS"'10510ISS 509400','ISS ','COTM','NT2426','3','W2W3W4<br>',' ',' ','','',' '"
p1180
aS"'10510ISS 509900','ISS ','COTM','IS0027','3','T2T3T4<br>','50',' ','','',' '"
p1181
aS"'10510ISS 700000','ISS ','COTM','SS0002','0',' ',' ',' ','','',' '"
p1182
aS"'10510ISS 700400','ISS ','COTM','FL0086','3','W6W7W8<br>',' ',' ','','',' '"
p1183
aS"'10510LANG101001','LANG','','FL0001','2','M1M2<br>','32',' ','','',' '"
p1184
aS"'10510LANG101002','LANG','','FL0001','2','M1M2<br>','32',' ','','',' '"
p1185
aS"'10510LANG101003','LANG','','FL0001','2','M1M2<br>','32',' ','','',' '"
p1186
aS"'10510LANG101004','LANG','','FL0001','2','M1M2<br>','32',' ','','',' '"
p1187
aS"'10510LANG101005','LANG','','FL0001','2','M1M2<br>','32',' ','','',' '"
p1188
aS"'10510LANG101006','LANG','','FL0001','2','M1M2<br>','32',' ','','',' '"
p1189
aS"'10510LANG101007','LANG','','FL0001','2','M1M2<br>','32',' ','','',' '"
p1190
aS"'10510LANG101008','LANG','','FL0001','2','M1M2<br>','32',' ','','',' '"
p1191
aS"'10510LANG101011','LANG','','FL0001','2','M3M4<br>','34',' ','','',' '"
p1192
aS"'10510LANG101012','LANG','','FL0001','2','M3M4<br>','34',' ','','',' '"
p1193
aS"'10510LANG101013','LANG','','FL0001','2','M3M4<br>','34',' ','','',' '"
p1194
aS"'10510LANG101014','LANG','','FL0001','2','M3M4<br>','34',' ','','',' '"
p1195
aS"'10510LANG101015','LANG','','FL0001','2','M3M4<br>','34',' ','','',' '"
p1196
aS"'10510LANG101016','LANG','','FL0001','2','M3M4<br>','34',' ','','',' '"
p1197
aS"'10510LANG101017','LANG','','FL0001','2','M3M4<br>','34',' ','','',' '"
p1198
aS"'10510LANG101019','LANG','','FL0001','2','W3W4<br>','32',' ','','',' '"
p1199
aS"'10510LANG101020','LANG','','FL0001','2','W3W4<br>','32',' ','','',' '"
p1200
aS"'10510LANG101021','LANG','','FL0001','2','W3W4<br>','32',' ','','',' '"
p1201
aS"'10510LANG101022','LANG','','FL0001','2','W3W4<br>','32',' ','','',' '"
p1202
aS"'10510LANG101023','LANG','','FL0001','2','W3W4<br>','32',' ','','',' '"
p1203
aS"'10510LANG101024','LANG','','FL0001','2','W3W4<br>','32',' ','','',' '"
p1204
aS"'10510LANG101026','LANG','','FL0001','2','R1R2<br>','32',' ','','',' '"
p1205
aS"'10510LANG101027','LANG','','FL0001','2','R1R2<br>','32',' ','','',' '"
p1206
aS"'10510LANG101028','LANG','','FL0001','2','R1R2<br>','32',' ','','',' '"
p1207
aS"'10510LANG101029','LANG','','FL0001','2','R1R2<br>','32',' ','','',' '"
p1208
aS"'10510LANG101030','LANG','','FL0001','2','R1R2<br>','32',' ','','',' '"
p1209
aS"'10510LANG101031','LANG','','FL0001','2','R1R2<br>','32',' ','','',' '"
p1210
aS"'10510LANG101032','LANG','','FL0001','2','R1R2<br>','32',' ','','',' '"
p1211
aS"'10510LANG101033','LANG','','FL0001','2','R1R2<br>','32',' ','','',' '"
p1212
aS"'10510LANG101034','LANG','','FL0001','2','R1R2<br>','32',' ','','',' '"
p1213
aS"'10510LANG101035','LANG','','FL0001','2','F3F4<br>','32',' ','','',' '"
p1214
aS"'10510LANG101036','LANG','','FL0001','2','F3F4<br>','32',' ','','',' '"
p1215
aS"'10510LANG101037','LANG','','FL0001','2','F3F4<br>','32',' ','','',' '"
p1216
aS"'10510LANG101038','LANG','','FL0001','2','F3F4<br>','32',' ','','',' '"
p1217
aS"'10510LANG101040','LANG','','FL0001','2','F3F4<br>','32',' ','','',' '"
p1218
aS"'10510LANG101041','LANG','','FL0001','2','F3F4<br>','32',' ','','',' '"
p1219
aS"'10510LANG101043','LANG','','FL0001','2','M3M4<br>','32',' ','','',' '"
p1220
aS"'10510LANG103001','LANG','','FG0003','2','M5M6<br>','30',' ','','',' '"
p1221
aS"'10510LANG103002','LANG','','FG0003','2','M5M6<br>','30',' ','','',' '"
p1222
aS"'10510LANG103003','LANG','','FG0003','2','M5M6<br>','30',' ','','',' '"
p1223
aS"'10510LANG103004','LANG','','FG0003','2','M5M6<br>','30',' ','','',' '"
p1224
aS"'10510LANG103005','LANG','','FG0014','2','M5M6<br>','30',' ','','',' '"
p1225
aS"'10510LANG103006','LANG','','FG0014','2','M5M6<br>','30',' ','','',' '"
p1226
aS"'10510LANG103007','LANG','','FG0014','2','M5M6<br>','30',' ','','',' '"
p1227
aS"'10510LANG103008','LANG','','FG0014','2','M5M6<br>','30',' ','','',' '"
p1228
aS"'10510LANG103009','LANG','','FG0003','2','M5M6<br>','30',' ','','',' '"
p1229
aS"'10510LANG103010','LANG','','FG0003','2','M7M8<br>','30',' ','','',' '"
p1230
aS"'10510LANG103011','LANG','','FG0014','2','M7M8<br>','30',' ','','',' '"
p1231
aS"'10510LANG103013','LANG','','FG0003','2','T5T6<br>','30',' ','','',' '"
p1232
aS"'10510LANG103014','LANG','','FG0003','2','T5T6<br>','30',' ','','',' '"
p1233
aS"'10510LANG103015','LANG','','FG0003','2','T5T6<br>','30',' ','','',' '"
p1234
aS"'10510LANG103016','LANG','','FG0003','2','T5T6<br>','30',' ','','',' '"
p1235
aS"'10510LANG103017','LANG','','FG0014','2','T5T6<br>','30',' ','','',' '"
p1236
aS"'10510LANG103018','LANG','','FG0014','2','T5T6<br>','30',' ','','',' '"
p1237
aS"'10510LANG103019','LANG','','FG0014','2','T5T6<br>','30',' ','','',' '"
p1238
aS"'10510LANG103021','LANG','','FG0003','2','W5W6<br>','30',' ','','',' '"
p1239
aS"'10510LANG103022','LANG','','FG0003','2','W5W6<br>','30',' ','','',' '"
p1240
aS"'10510LANG103023','LANG','','FG0003','2','W5W6<br>','30',' ','','',' '"
p1241
aS"'10510LANG103024','LANG','','FG0003','2','W5W6<br>','30',' ','','',' '"
p1242
aS"'10510LANG103025','LANG','','FG0003','2','W5W6<br>','30',' ','','',' '"
p1243
aS"'10510LANG103026','LANG','','FG0014','2','W5W6<br>','30',' ','','',' '"
p1244
aS"'10510LANG103027','LANG','','FG0014','2','W5W6<br>','30',' ','','',' '"
p1245
aS"'10510LANG103028','LANG','','FG0014','2','W5W6<br>','30',' ','','',' '"
p1246
aS"'10510LANG103030','LANG','','FG0003','2','W7W8<br>','30',' ','','',' '"
p1247
aS"'10510LANG103031','LANG','','FG0003','2','W7W8<br>','30',' ','','',' '"
p1248
aS"'10510LANG103032','LANG','','FG0014','2','W7W8<br>','30',' ','','',' '"
p1249
aS"'10510LANG103035','LANG','','FG0003','2','R5R6<br>','30',' ','','',' '"
p1250
aS"'10510LANG103036','LANG','','FG0003','2','R5R6<br>','30',' ','','',' '"
p1251
aS"'10510LANG103037','LANG','','FG0014','2','R5R6<br>','30',' ','','',' '"
p1252
aS"'10510LANG103038','LANG','','FG0014','2','R5R6<br>','30',' ','','',' '"
p1253
aS"'10510LANG103039','LANG','','FG0014','2','R5R6<br>','30',' ','','',' '"
p1254
aS"'10510LANG103040','LANG','','FG0014','2','R5R6<br>','30',' ','','',' '"
p1255
aS"'10510LANG103041','LANG','','FG0003','2','R7R8<br>','30',' ','','',' '"
p1256
aS"'10510LANG103042','LANG','','FG0014','2','F5F6<br>','30',' ','','',' '"
p1257
aS"'10510LANG104001','LANG','','FG0020','2','M9Ma<br>','30',' ','','',' '"
p1258
aS"'10510LANG104003','LANG','','FG0020','2','W3W4<br>','30',' ','','',' '"
p1259
aS"'10510LANG200001','LANG','','NT2389','2','W7W8<br>','30',' ','','',' '"
p1260
aS"'10510LANG200002','LANG','','NT2389','2','R3R4<br>','30',' ','','',' '"
p1261
aS"'10510LANG200003','LANG','','LG0016','2','M7M8<br>','24',' ','','',' '"
p1262
aS"'10510LANG200004','LANG','','LG0016','2','R3R4<br>','24',' ','','',' '"
p1263
aS"'10510LANG200005','LANG','','FL0053','2','M7M8<br>','30',' ','','',' '"
p1264
aS"'10510LANG200007','LANG','','FL0052','2','R7R8<br>','30',' ','','',' '"
p1265
aS"'10510LANG200008','LANG','','FL0052','2','R5R6<br>','30',' ','','',' '"
p1266
aS"'10510LANG200009','LANG','','NT1815','2','R3R4<br>','30',' ','','',' '"
p1267
aS"'10510LANG200010','LANG','','NT2660','2','T7T8<br>','20',' ','','',' '"
p1268
aS"'10510LANG200011','LANG','','NT2660','2','M7M8<br>','20',' ','','',' '"
p1269
aS"'10510LANG200012','LANG','','NT2660','2','R3R4<br>','20',' ','','',' '"
p1270
aS"'10510LANG200013','LANG','','NT2661','2','T3T4<br>','20',' ','','',' '"
p1271
aS"'10510LANG200014','LANG','','NT2661','2','R3R4<br>','20',' ','','',' '"
p1272
aS"'10510LANG200016','LANG','','WW0906','2','T3T4<br>','20',' ','','',' '"
p1273
aS"'10510LANG200017','LANG','','FL0188','2','T3T4<br>','20',' ','','',' '"
p1274
aS"'10510LANG200018','LANG','','WW0724','2','W7W8<br>','24',' ','','',' '"
p1275
aS"'10510LANG200019','LANG','','WI0025','2','F5F6<br>','24',' ','','',' '"
p1276
aS"'10510LANG400001','LANG','','LG0016','3','R3R4Rn<br>','24',' ','','',' '"
p1277
aS"'10510LANG400002','LANG','','WW0724','3','R7R8R9<br>','24',' ','','',' '"
p1278
aS"'10510LANG400003','LANG','','NT2038','3','FnF5F6<br>','30',' ','','',' '"
p1279
aS"'10510LANG400004','LANG','','IS0012','3','T3T4Tn<br>','20',' ','','',' '"
p1280
aS"'10510LANG400005','LANG','','IS0012','3','R3R4Rn<br>','20',' ','','',' '"
p1281
aS"'10510LANG400006','LANG','','FL0066','3','W3W4Wn<br>','20',' ','','',' '"
p1282
aS"'10510LANG400007','LANG','','FL0066','3','R7R8R9<br>','20',' ','','',' '"
p1283
aS"'10510LANG500001','LANG','','IS0012','3','M7M8M9<br>','20',' ','','',' '"
p1284
aS"'10510LANG500003','LANG','','FL0066','3','MnM5M6<br>','20',' ','','',' '"
p1285
aS"'10510LANG500004','LANG','','FL0066','3','WnW5W6<br>','20',' ','','',' '"
p1286
aS"'10510LANG500005','LANG','','LG0016','3','RnR5R6<br>','24',' ','','',' '"
p1287
aS"'10510LANG500006','LANG','','LG0016','3','TnT5T6<br>','24',' ','','',' '"
p1288
aS"'10510LING500100','LING','CHS','FL0294','3','M6M7M8<br>',' ',' ','','',' '"
p1289
aS"'10510LING500300','LING','CHS','CL0010','3','W6W7W8<br>',' ',' ','','',' '"
p1290
aS"'10510LING500500','LING','CHS','CL0042','3','T2T3T4<br>',' ',' ','','',' '"
p1291
aS"'10510LING500700','LING','CHS','LI0002','2','M5T5R5F5<br>',' ',' ','','',' '"
p1292
aS"'10510LING590900','LING','CHS','NT2605','3','R2R3R4<br>',' ',' ','','',' '"
p1293
aS"'10510LING591000','LING','CHS','LI0260','3','T6T7T8<br>',' ',' ','','',' '"
p1294
aS"'10510LING591100','LING','CHS','NT2607','3','R2R3R4<br>',' ',' ','','',' '"
p1295
aS"'10510LING591200','LING','CHS','NT2608','3','F3F4Fn<br>',' ',' ','','',' '"
p1296
aS"'10510LING591300','LING','CHS','LI0022','3','T6T7T8<br>',' ',' ','','',' '"
p1297
aS"'10510LING591400','LING','CHS','NT2609','3','F6F7F8<br>',' ',' ','','',' '"
p1298
aS"'10510LING591500','LING','CHS','TMP613','3','M3M4Mn<br>',' ',' ','','',' '"
p1299
aS"'10510LING600100','LING','CHS','SS0001','2',' ',' ',' ','','',' '"
p1300
aS"'10510LING700100','LING','CHS','SS0002','0',' ',' ',' ','','',' '"
p1301
aS"'10510LS  110301','LS  ','LSCO','LS0001','3','W7W8W9<br>','50',' ','','',' '"
p1302
aS"'10510LS  110302','LS  ','LSCO','LS0001','3','R7R8R9<br>','50',' ','','',' '"
p1303
aS"'10510LS  114000','LS  ','LSCO','NT0733','2','W3W4<br>','30','*1','3','Y',' '"
p1304
aS"'10510LS  114300','LS  ','LSCO','NT0037','2','T7T8<br>','200','*1','3','','GEC'"
p1305
aS"'10510LS  192100','LS  ','LSCO','LS0395','1','R6<br>',' ',' ','','',' '"
p1306
aS"'10510LS  214500','LS  ','LSCO','NT2692','3',' ','0',' ','','',' '"
p1307
aS"'10510LS  243100','LS  ','LSCO','NT0036','2','W1W2<br>',' ',' ','','',' '"
p1308
aS"'10510LS  312100','LS  ','LSCO','LS0011','3','M3M4W2<br>','60',' ','','',' '"
p1309
aS"'10510LS  314100','LS  ','LSCO','NT0991','2',' ','0',' ','','',' '"
p1310
aS"'10510LS  315200','LS  ','LSCO','LS0186','3','M7M8M9<br>',' ',' ','','',' '"
p1311
aS"'10510LS  321000','LS  ','LSCO','NT2178','2','W7W8<br>','50','*3','3','',' '"
p1312
aS"'10510LS  322100','LS  ','LSCO','LS0179','3','T3T4R4<br>',' ',' ','','',' '"
p1313
aS"'10510LS  324700','LS  ','LSCO','LS0469','2','FaFb<br>',' ',' ','','','DL'"
p1314
aS"'10510LS  330100','LS  ','LSCO','CH0015','3','T1T2F2<br>',' ',' ','','',' '"
p1315
aS"'10510LS  330300','LS  ','LSCO','RB0114','3','W3W4F3<br>',' ',' ','','',' '"
p1316
aS"'10510LS  340100','LS  ','LSCO','LS0290','3','T5F5F6<br>',' ',' ','','',' '"
p1317
aS"'10510LS  382201','LS  ','LSCO','MB0045','2','M5M6M7M8<br>','24',' ','','',' '"
p1318
aS"'10510LS  382202','LS  ','LSCO','MB0045','2','T5T6T7T8<br>','24',' ','','',' '"
p1319
aS"'10510LS  383100','LS  ','LSCO','LS0054','1',' ',' ',' ','','',' '"
p1320
aS"'10510LS  390101','LS  ','LSCO','SS0003','1','R2<br>','10',' ','','',' '"
p1321
aS"'10510LS  390102','LS  ','LSCO','SS0003','1','R2<br>','10',' ','','',' '"
p1322
aS"'10510LS  390103','LS  ','LSCO','SS0003','1','R2<br>','10',' ','','',' '"
p1323
aS"'10510LS  390104','LS  ','LSCO','SS0003','1','R2<br>','10',' ','','',' '"
p1324
aS"'10510LS  390105','LS  ','LSCO','SS0003','1','R2<br>','10',' ','','',' '"
p1325
aS"'10510LS  390106','LS  ','LSCO','SS0003','1','R2<br>','10',' ','','',' '"
p1326
aS"'10510LS  404000','LS  ','LSCO','LS0431','3',' ',' ',' ','','',' '"
p1327
aS"'10510LS  414300','LS  ','LSCO','LS0028','3','R7R8R9<br>','60',' ','','',' '"
p1328
aS"'10510LS  414900','LS  ','LSCO','LS0298','2','F7F8<br>','60',' ','','',' '"
p1329
aS"'10510LS  464300','LS  ','LSCO','LS0067','3','W7W8W9<br>','30',' ','','Y',' '"
p1330
aS"'10510LS  473200','LS  ','LSCO','RB0025','3','M7M8M9<br>',' ',' ','','',' '"
p1331
aS"'10510LS  474100','LS  ','LSCO','LS0126','3','M3M4W2<br>',' ',' ','','',' '"
p1332
aS"'10510LS  482100','LS  ','LSCO','LS0027','2','R5R6R7R8<br>','24',' ','','',' '"
p1333
aS"'10510LS  545700','LS  ','LSCO','NT0550','2','T7T8<br>','30',' ','','',' '"
p1334
aS"'10510LSBS535100','LSBS','LSCO','LS0129','2','R6R7<br>',' ',' ','','',' '"
p1335
aS"'10510LSBS545100','LSBS','LSCO','NT2685','2','F5F6<br>',' ',' ','','',' '"
p1336
aS"'10510LSBS554500','LSBS','LSCO','LS0468','3','W6W7W8<br>',' ',' ','','',' '"
p1337
aS"'10510LSBS564300','LSBS','LSCO','LS0183','3','M6M7M8<br>',' ',' ','','',' '"
p1338
aS"'10510LSBS565700','LSBS','LSCO','NT2686','2','W9Wa<br>','0',' ','','',' '"
p1339
aS"'10510LSBS566100','LSBS','LSCO','LS0434','1','M2<br>',' ',' ','','',' '"
p1340
aS"'10510LSBS566500','LSBS','LSCO','LS0033','3','M6M7M8<br>',' ',' ','','',' '"
p1341
aS"'10510LSBS575400','LSBS','LSCO','NT2293','1','Ma<br>','0',' ','','',' '"
p1342
aS"'10510LSBS590101','LSBS','LSCO','SS0003','1','W5<br>','12',' ','','',' '"
p1343
aS"'10510LSBS590102','LSBS','LSCO','SS0003','1','W5<br>','12',' ','','',' '"
p1344
aS"'10510LSBS590300','LSBS','LSCO','SS0004','1','R3R4<br>','40',' ','','',' '"
p1345
aS"'10510LSBS600200','LSBS','LSCO','SS0001','2',' ',' ',' ','','',' '"
p1346
aS"'10510LSBS652100','LSBS','LSCO','MB0024','3','W2W3W4<br>',' ',' ','','',' '"
p1347
aS"'10510LSBS700200','LSBS','LSCO','SS0002','0',' ',' ',' ','','',' '"
p1348
aS"'10510LSBS790101','LSBS','LSCO','SS0003','1','F5<br>','8',' ','','',' '"
p1349
aS"'10510LSBS790102','LSBS','LSCO','SS0003','1','F5<br>','8',' ','','',' '"
p1350
aS"'10510LSBS790300','LSBS','LSCO','SS0004','1','R3R4<br>','10',' ','','',' '"
p1351
aS"'10510LSBT505200','LSBT','LSCO','NT1302','2','F5F6<br>','0',' ','','',' '"
p1352
aS"'10510LSBT515100','LSBT','LSCO','NT2129','3','F5F6F7F8<br>',' ',' ','','',' '"
p1353
aS"'10510LSBT544900','LSBT','LSCO','LS0476','2','T1T2<br>','0',' ','','',' '"
p1354
aS"'10510LSBT555100','LSBT','LSCO','NT0042','2','M3M4<br>','0',' ','','',' '"
p1355
aS"'10510LSBT565100','LSBT','LSCO','NT0166','1','W7<br>','48',' ','','',' '"
p1356
aS"'10510LSBT573100','LSBT','LSCO','NT2683','2','M3M4<br>','0',' ','','',' '"
p1357
aS"'10510LSBT573300','LSBT','LSCO','NT2684','2','F7F8<br>','0',' ','','',' '"
p1358
aS"'10510LSBT574300','LSBT','LSCO','NT2693','2','F5F6<br>','0',' ','','',' '"
p1359
aS"'10510LSBT574500','LSBT','LSCO','LS0384','3','T1T2F2<br>',' ',' ','','',' '"
p1360
aS"'10510LSBT574900','LSBT','LSCO','NT0734','2','T3T4<br>',' ',' ','','',' '"
p1361
aS"'10510LSBT575100','LSBT','LSCO','LS0455','2','R5R6<br>','48',' ','','',' '"
p1362
aS"'10510LSBT575300','LSBT','LSCO','NT1023','2','W3W4<br>',' ',' ','','',' '"
p1363
aS"'10510LSBT576200','LSBT','LSCO','NT2408','2','R5R6<br>',' ',' ','','',' '"
p1364
aS"'10510LSBT590101','LSBT','LSCO','SS0003','1','W5<br>','12',' ','','',' '"
p1365
aS"'10510LSBT590102','LSBT','LSCO','SS0003','1','W5<br>','12',' ','','',' '"
p1366
aS"'10510LSBT590300','LSBT','LSCO','SS0004','1','R3R4<br>','40',' ','','',' '"
p1367
aS"'10510LSBT594100','LSBT','LSCO','LS0297','2','T5T6<br>',' ',' ','','',' '"
p1368
aS"'10510LSBT594200','LSBT','LSCO','LS0164','3','R6R7R8<br>',' ',' ','','',' '"
p1369
aS"'10510LSBT600200','LSBT','LSCO','SS0001','2',' ',' ',' ','','',' '"
p1370
aS"'10510LSBT674100','LSBT','LSCO','NT1490','2','T9Ta<br>','0',' ','','',' '"
p1371
aS"'10510LSBT674500','LSBT','LSCO','LS0068','3','T6T7T8<br>',' ',' ','','',' '"
p1372
aS"'10510LSBT700200','LSBT','LSCO','SS0002','0',' ',' ',' ','','',' '"
p1373
aS"'10510LSBT790101','LSBT','LSCO','SS0003','1','F5<br>','8',' ','','',' '"
p1374
aS"'10510LSBT790300','LSBT','LSCO','SS0004','1','R3R4<br>','10',' ','','',' '"
p1375
aS"'10510LSC 110100','LSC ','','LS0442','3','R7R8R9<br>',' ',' ','','',' '"
p1376
aS"'10510LSIP181100','LSIP','LSCO','LS0017','2','W5W6W7W8<br>','30',' ','','',' '"
p1377
aS"'10510LSMC515300','LSMC','LSCO','NT2691','2','MbMc<br>','0',' ','','',' '"
p1378
aS"'10510LSMC515500','LSMC','LSCO','NT2688','2','F7F8<br>','0',' ','','',' '"
p1379
aS"'10510LSMC524300','LSMC','LSCO','NT2126','2','M8M9<br>','0',' ','','',' '"
p1380
aS"'10510LSMC525100','LSMC','LSCO','NT2689','1','W7<br>',' ',' ','','',' '"
p1381
aS"'10510LSMC545300','LSMC','LSCO','LS0439','2','M1M2<br>','0',' ','','',' '"
p1382
aS"'10510LSMC555100','LSMC','LSCO','NT2687','2','M3M4<br>','0',' ','','',' '"
p1383
aS"'10510LSMC555300','LSMC','LSCO','NT0041','2','T3T4<br>',' ',' ','','',' '"
p1384
aS"'10510LSMC575700','LSMC','LSCO','LS0291','3','R6R7R8<br>',' ',' ','','',' '"
p1385
aS"'10510LSMC576300','LSMC','LSCO','NT2690','2','F7F8<br>','0',' ','','',' '"
p1386
aS"'10510LSMC590101','LSMC','LSCO','SS0003','1','W5<br>','12',' ','','',' '"
p1387
aS"'10510LSMC590102','LSMC','LSCO','SS0003','1','W5<br>','12',' ','','',' '"
p1388
aS"'10510LSMC590300','LSMC','LSCO','SS0004','1','R3R4<br>','40',' ','','',' '"
p1389
aS"'10510LSMC600200','LSMC','LSCO','SS0001','2',' ',' ',' ','','',' '"
p1390
aS"'10510LSMC642100','LSMC','LSCO','MB0033','3','W3F3F4<br>',' ',' ','','',' '"
p1391
aS"'10510LSMC644900','LSMC','LSCO','LS0121','2','F7F8<br>',' ',' ','','',' '"
p1392
aS"'10510LSMC700200','LSMC','LSCO','SS0002','0',' ',' ',' ','','',' '"
p1393
aS"'10510LSMC790101','LSMC','LSCO','SS0003','1','F5<br>','8',' ','','',' '"
p1394
aS"'10510LSMC790102','LSMC','LSCO','SS0003','1','F5<br>','8',' ','','',' '"
p1395
aS"'10510LSMC790300','LSMC','LSCO','SS0004','1','R3R4<br>','10',' ','','',' '"
p1396
aS"'10510LSMM514500','LSMM','LSCO','NT2681','2','F7F8<br>','0',' ','','',' '"
p1397
aS"'10510LSMM524300','LSMM','LSCO','NT2679','2','W8W9<br>','0',' ','','',' '"
p1398
aS"'10510LSMM525600','LSMM','LSCO','NT2682','2','F8F9<br>','0',' ','','',' '"
p1399
aS"'10510LSMM534500','LSMM','LSCO','LS0464','2','W3W4<br>',' ',' ','','',' '"
p1400
aS"'10510LSMM544400','LSMM','LSCO','NT2680','2','M5M6<br>','0',' ','','',' '"
p1401
aS"'10510LSMM564100','LSMM','LSCO','LS0426','2','M6M7<br>','30',' ','','',' '"
p1402
aS"'10510LSMM565100','LSMM','LSCO','LS0202','3','M6M7M8<br>',' ',' ','','',' '"
p1403
aS"'10510LSMM575700','LSMM','LSCO','LS0466','2','W7W8<br>','50',' ','','',' '"
p1404
aS"'10510LSMM590101','LSMM','LSCO','SS0003','1','W5<br>','12',' ','','',' '"
p1405
aS"'10510LSMM590102','LSMM','LSCO','SS0003','1','W5<br>','12',' ','','',' '"
p1406
aS"'10510LSMM590300','LSMM','LSCO','SS0004','1','R3R4<br>','40',' ','','',' '"
p1407
aS"'10510LSMM600200','LSMM','LSCO','SS0001','2',' ',' ',' ','','',' '"
p1408
aS"'10510LSMM614600','LSMM','LSCO','LS0222','2','W7W8<br>','0',' ','','',' '"
p1409
aS"'10510LSMM624700','LSMM','LSCO','LS0063','3','R6R7R8<br>',' ',' ','','',' '"
p1410
aS"'10510LSMM700200','LSMM','LSCO','SS0002','0',' ',' ',' ','','',' '"
p1411
aS"'10510LSMM790101','LSMM','LSCO','SS0003','1','F5<br>','8',' ','','',' '"
p1412
aS"'10510LSMM790102','LSMM','LSCO','SS0003','1','F5<br>','8',' ','','',' '"
p1413
aS"'10510LSMM790300','LSMM','LSCO','SS0004','1','R3R4<br>','10',' ','','',' '"
p1414
aS"'10510LSSN510100','LSSN','LSCO','NT2677','2','M5M6<br>','0',' ','','',' '"
p1415
aS"'10510LSSN510700','LSSN','LSCO','EE0429','2','T7T8<br>','15',' ','','','DL'"
p1416
aS"'10510LSSN510900','LSSN','LSCO','LS0473','2','F7F8<br>',' ',' ','','',' '"
p1417
aS"'10510LSSN514200','LSSN','LSCO','NT1978','1','F7<br>','0',' ','','',' '"
p1418
aS"'10510LSSN515100','LSSN','LSCO','TMP652','2','MaMb<br>','0',' ','','',' '"
p1419
aS"'10510LSSN525100','LSSN','LSCO','LS0139','3','W2W3W4<br>',' ',' ','','',' '"
p1420
aS"'10510LSSN590100','LSSN','LSCO','SS0003','1','W5<br>','12',' ','','',' '"
p1421
aS"'10510LSSN590300','LSSN','LSCO','SS0004','1','R3R4<br>','40',' ','','',' '"
p1422
aS"'10510LSSN600200','LSSN','LSCO','SS0001','2',' ',' ',' ','','',' '"
p1423
aS"'10510LST 310300','LST ','COTM','LA0002','3','W2W3W4<br>','50',' ','','',' '"
p1424
aS"'10510LST 310501','LST ','COTM','LA0006','3','M2M3M4<br>','18',' ','','',' '"
p1425
aS"'10510LST 310502','LST ','COTM','LA0006','3','M2M3M4<br>','50',' ','','',' '"
p1426
aS"'10510LST 320100','LST ','COTM','LA0003','4','F3F4F5F6<br>','100',' ','','',' '"
p1427
aS"'10510LST 321001','LST ','COTM','LA0025','3','S5S6S7<br>','18',' ','','Y',' '"
p1428
aS"'10510LST 321002','LST ','COTM','LA0025','3','M2M3M4<br>','18',' ','','Y',' '"
p1429
aS"'10510LST 330100','LST ','COTM','LA0001','2','T5T6<br>','85',' ','','',' '"
p1430
aS"'10510LST 350100','LST ','COTM','LA0184','2','R3R4<br>','85','*1','3','',' '"
p1431
aS"'10510LST 350301','LST ','COTM','CC0048','3','T7T8T9<br>','160','*3','3','',' '"
p1432
aS"'10510LST 350302','LST ','COTM','CC0048','3','M7M8M9<br>','100','*3','3','',' '"
p1433
aS"'10510LST 350500','LST ','COTM','XA0946','3','W2W3W4<br>','85',' ','','',' '"
p1434
aS"'10510LST 370100','LST ','COTM','LA0013','3','W2W3W4<br>','18',' ','','',' '"
p1435
aS"'10510LST 420301','LST ','COTM','LA0015','3','M7M8M9<br>','50',' ','','Y',' '"
p1436
aS"'10510LST 420600','LST ','COTM','WW0128','2','T3T4<br>','50',' ','','Y',' '"
p1437
aS"'10510LST 461300','LST ','COTM','LA0035','2','M5M6<br>','50',' ','','Y',' '"
p1438
aS"'10510LST 480400','LST ','COTM','LA0194','1','W9<br>','18',' ','','',' '"
p1439
aS"'10510LST 500100','LST ','COTM','SS0001','2',' ',' ',' ','','',' '"
p1440
aS"'10510LST 500200','LST ','COTM','EC0060','2','T5T6<br>','30',' ','','Y',' '"
p1441
aS"'10510LST 500900','LST ','COTM','SS0011','1','R5R6R7<br>','50',' ','','',' '"
p1442
aS"'10510LST 501200','LST ','COTM','NT1829','2','F7F8<br>','18',' ','','',' '"
p1443
aS"'10510LST 501700','LST ','COTM','LA0010','1','R3R4<br>','50',' ','','',' '"
p1444
aS"'10510LST 502000','LST ','COTM','LA0062','1','S3S4<br>','50',' ','','',' '"
p1445
aS"'10510LST 502100','LST ','COTM','LT0144','2','TaTb<br>','16',' ','','',' '"
p1446
aS"'10510LST 530900','LST ','COTM','LA0008','2','F5F6F7<br>','18',' ','','',' '"
p1447
aS"'10510LST 531400','LST ','COTM','NT0667','2','R8R9<br>','18',' ','','',' '"
p1448
aS"'10510LST 531700','LST ','COTM','LA0104','2','RaRb<br>','50',' ','','',' '"
p1449
aS"'10510LST 533900','LST ','COTM','NT2614','2','T1T2<br>','18',' ','','',' '"
p1450
aS"'10510LST 534000','LST ','COTM','NT2598','2','M3M4<br>','18',' ','','',' '"
p1451
aS"'10510LST 540500','LST ','COTM','LA0039','2','W7W8<br>','50',' ','','Y',' '"
p1452
aS"'10510LST 540900','LST ','COTM','LA0166','2','M5M6<br>','18',' ','','',' '"
p1453
aS"'10510LST 550100','LST ','COTM','LA0019','2','R3R4<br>','18',' ','','',' '"
p1454
aS"'10510LST 550200','LST ','COTM','NT1516','2','W7W8<br>','50',' ','','',' '"
p1455
aS"'10510LST 550800','LST ','COTM','LA0089','2','WaWb<br>','50',' ','','',' '"
p1456
aS"'10510LST 561700','LST ','COTM','NT2373','2','W5W6<br>','18',' ','','',' '"
p1457
aS"'10510LST 570100','LST ','COTM','LA0031','2','W9Wa<br>','18',' ','','',' '"
p1458
aS"'10510LST 570400','LST ','COTM','LA0056','2','T7T8<br>','18',' ','','',' '"
p1459
aS"'10510LST 570600','LST ','COTM','LA0048','2','W5W6<br>','50',' ','','',' '"
p1460
aS"'10510LST 570900','LST ','COTM','NT2600','2','F3F4<br>','18',' ','','',' '"
p1461
aS"'10510LST 571000','LST ','COTM','LA0172','2','R8R9<br>','30',' ','','',' '"
p1462
aS"'10510LST 571800','LST ','COTM','TMP529','2','T3T4<br>','18',' ','','',' '"
p1463
aS"'10510MATH101001','MATH','SCI','MA0001','4','T1T2F1F2<br>','110',' ','','',' '"
p1464
aS"'10510MATH101002','MATH','SCI','MA0001','4','T1T2F1F2<br>','90',' ','','',' '"
p1465
aS"'10510MATH101003','MATH','SCI','MA0001','4','T1T2F1F2<br>','110',' ','','',' '"
p1466
aS"'10510MATH101004','MATH','SCI','MA0001','4','T1T2F1F2<br>MaMb<br>','100',' ','','',' '"
p1467
aS"'10510MATH101005','MATH','SCI','MA0001','4','M3M4W1W2<br>','100',' ','','',' '"
p1468
aS"'10510MATH101006','MATH','SCI','MA0001','4','T3T4R3R4<br>','80',' ','','',' '"
p1469
aS"'10510MATH101007','MATH','SCI','MA0001','4','T3T4R3R4<br>','80',' ','','',' '"
p1470
aS"'10510MATH101008','MATH','SCI','MA0001','4','T3T4R3R4<br>','50',' ','','',' '"
p1471
aS"'10510MATH103001','MATH','SCI','MA0001','3','T3T4R3<br>','110',' ','','',' '"
p1472
aS"'10510MATH103002','MATH','SCI','MA0001','3','T3T4R3R4<br>','125',' ','','',' '"
p1473
aS"'10510MATH103003','MATH','SCI','MA0001','3','T3T4R3R4<br>','125',' ','','',' '"
p1474
aS"'10510MATH103004','MATH','SCI','MA0001','3','T3T4R3R4<br>','110',' ','','',' '"
p1475
aS"'10510MATH103005','MATH','SCI','MA0001','3','T3T4R3R4<br>','150',' ','','',' '"
p1476
aS"'10510MATH103006','MATH','SCI','MA0001','3','T3T4R3R4<br>','120',' ','','',' '"
p1477
aS"'10510MATH141000','MATH','SCI','MA0079','3','T7W5W6<br>','100',' ','','',' '"
p1478
aS"'10510MATH201001','MATH','SCI','MA0004','4','T1T2F1F2<br>','40',' ','','Y',' '"
p1479
aS"'10510MATH201002','MATH','SCI','MA0004','4','T1T2F1F2<br>','80',' ','','Y',' '"
p1480
aS"'10510MATH241000','MATH','SCI','MA0110','3','M3M4W2<br>','90',' ','','',' '"
p1481
aS"'10510MATH250000','MATH','SCI','NT1431','3','W3W4Wn<br>','30',' ','','',' '"
p1482
aS"'10510MATH281000','MATH','SCI','IE0050','3','T3T4R4<br>','90',' ','','',' '"
p1483
aS"'10510MATH301000','MATH','SCI','MA0007','3','M2R1R2<br>','80',' ','','Y',' '"
p1484
aS"'10510MATH331000','MATH','SCI','NT1405','3','T7W5W6<br>','50',' ','','',' '"
p1485
aS"'10510MATH361000','MATH','SCI','MA0112','3','T8R7R8<br>','50',' ','','Y',' '"
p1486
aS"'10510MATH481000','MATH','SCI','EE0023','3','T5F5F6<br>T6<br>','49',' ','','',' '"
p1487
aS"'10510MATH501000','MATH','SCI','MA0142','3','M2F3F4<br>','0',' ','','',' '"
p1488
aS"'10510MATH513000','MATH','SCI','MA0016','3','M3M4T7<br>','40',' ','','',' '"
p1489
aS"'10510MATH523000','MATH','SCI','AM0162','3','T6R6R7<br>',' ',' ','','',' '"
p1490
aS"'10510MATH525000','MATH','SCI','AM0020','3','W3W4R3R4<br>','30',' ','','',' '"
p1491
aS"'10510MATH541000','MATH','SCI','MA0019','3','M5M6W2<br>','30',' ','','',' '"
p1492
aS"'10510MATH551000','MATH','SCI','NT2631','3','TnT5T6<br>',' ',' ','','',' '"
p1493
aS"'10510MATH571000','MATH','SCI','MA0021','3','W6W7W8<br>','30',' ','','',' '"
p1494
aS"'10510MATH576000','MATH','SCI','MA0347','3','W7W8W9<br>',' ',' ','','',' '"
p1495
aS"'10510MATH577000','MATH','SCI','MA0438','3','F5F6F7<br>',' ',' ','','',' '"
p1496
aS"'10510MATH596100','MATH','SCI','AM0149','3','M5M6T3<br>',' ',' ','','',' '"
p1497
aS"'10510MATH601000','MATH','SCI','SS0001','2',' ',' ',' ','','',' '"
p1498
aS"'10510MATH671000','MATH','SCI','MA0088','3','W5R5R6<br>',' ',' ','','',' '"
p1499
aS"'10510MATH687000','MATH','SCI','NT2626','3','W2W3W4<br>',' ',' ','','',' '"
p1500
aS"'10510MATH701000','MATH','SCI','SS0002','0',' ',' ',' ','','',' '"
p1501
aS"'10510MATH717200','MATH','SCI','SS0088','0','M7M8<br>',' ',' ','','',' '"
p1502
aS"'10510MATU541100','MATU','','NT2695','3','W3W4R6<br>',' ',' ','','',' '"
p1503
aS"'10510MATU541400','MATU','','NT2696','3','M5W3W4<br>',' ',' ','','',' '"
p1504
aS"'10510MATU541900','MATU','','NT1747','3','TaTbTc<br>',' ',' ','','',' '"
p1505
aS"'10510MBA 500000','MBA ','COTM','SS0001','2',' ',' ',' ','','',' '"
p1506
aS"'10510MBA 500200','MBA ','COTM','EM0160','3','S2S3S4<br>',' ',' ','','',' '"
p1507
aS"'10510MBA 500300','MBA ','COTM','MB0064','3','S5S6S7<br>',' ',' ','','',' '"
p1508
aS"'10510MBA 500501','MBA ','COTM','IE0013','3','S2S3S4<br>',' ',' ','','',' '"
p1509
aS"'10510MBA 500600','MBA ','COTM','MB0066','2','S8S9<br>','40',' ','','',' '"
p1510
aS"'10510MBA 500900','MBA ','COTM','IE0205','2','S8S9<br>','50',' ','','',' '"
p1511
aS"'10510MBA 502200','MBA ','COTM','FL0086','2','RaRb<br>','40',' ','','',' '"
p1512
aS"'10510MBA 502300','MBA ','COTM','XA2099','2','R1R2<br>','0',' ','','',' '"
p1513
aS"'10510MBA 505800','MBA ','COTM','WW0226','3','S5S6S7<br>',' ',' ','','',' '"
p1514
aS"'10510MFB 500100','MFB ','COTM','NT2611','3','S2S3S4<br>','16',' ','','',' '"
p1515
aS"'10510MFB 500200','MFB ','COTM','IE0096','3','S5S6S7<br>','16',' ','','',' '"
p1516
aS"'10510MFB 500300','MFB ','COTM','WW1690','3',' ','16',' ','','',' '"
p1517
aS"'10510MFB 500400','MFB ','COTM','NT2612','3',' ','50',' ','','',' '"
p1518
aS"'10510MI  100001','MI  ','','XX0051','2','R5R6<br>','80',' ','','',' '"
p1519
aS"'10510MI  100002','MI  ','','XX0051','2','R7R8<br>','80',' ','','',' '"
p1520
aS"'10510MI  100003','MI  ','','XX0051','2','W1W2<br>','80',' ','','',' '"
p1521
aS"'10510MI  100004','MI  ','','XX0051','2','W5W6<br>','80',' ','','',' '"
p1522
aS"'10510MI  100101','MI  ','','XX0048','2','T1T2<br>','80',' ','','',' '"
p1523
aS"'10510MI  100102','MI  ','','XX0048','2','T3T4<br>','80',' ','','',' '"
p1524
aS"'10510MI  100103','MI  ','','XX0048','2','F5F6<br>','80',' ','','',' '"
p1525
aS"'10510MI  100201','MI  ','','XX0049','2','F1F2<br>','80',' ','','',' '"
p1526
aS"'10510MI  100202','MI  ','','XX0049','2','F3F4<br>','80',' ','','',' '"
p1527
aS"'10510MI  100301','MI  ','','XX0047','2','M1M2<br>','80',' ','','',' '"
p1528
aS"'10510MI  100302','MI  ','','XX0047','2','M3M4<br>','80',' ','','',' '"
p1529
aS"'10510MI  100303','MI  ','','XX0047','2','M5M6<br>','80',' ','','',' '"
p1530
aS"'10510MI  100304','MI  ','','XX0047','2','M7M8<br>','80',' ','','',' '"
p1531
aS"'10510MI  205001','MI  ','','XX0050','2','W3W4<br>','80',' ','','',' '"
p1532
aS"'10510MI  205002','MI  ','','XX0050','2','T5T6<br>','80',' ','','',' '"
p1533
aS"'10510MI  205003','MI  ','','XX0050','2','T7T8<br>','80',' ','','',' '"
p1534
aS"'10510MPM 500100','MPM ','COTM','CK0607','3','S2S3S4<br>','20',' ','','',' '"
p1535
aS"'10510MPM 500200','MPM ','COTM','WW0577','3','S5S6S7<br>','20',' ','','',' '"
p1536
aS"'10510MPM 500300','MPM ','COTM','NT2613','3','FaFbFc<br>','20',' ','','',' '"
p1537
aS"'10510MS  102101','MS  ','ENGI','MS0363','3','R1R2F3F4<br>','47',' ','','',' '"
p1538
aS"'10510MS  102102','MS  ','ENGI','MS0363','3','R1R2F3F4<br>','75',' ','','',' '"
p1539
aS"'10510MS  102103','MS  ','ENGI','MS0363','3','W7W8R7R8<br>','70',' ','','',' '"
p1540
aS"'10510MS  103100','MS  ','ENGI','CH0001','3','M3M4W1W2<br>','150',' ','','',' '"
p1541
aS"'10510MS  201101','MS  ','ENGI','EA0002','3','T3T4R3R4<br>','77',' ','','Y',' '"
p1542
aS"'10510MS  201102','MS  ','ENGI','EA0002','3','M3M4W1W2<br>','150',' ','','Y',' '"
p1543
aS"'10510MS  202101','MS  ','ENGI','MS0064','3','M3M4W1W2<br>','120',' ','','Y',' '"
p1544
aS"'10510MS  202102','MS  ','ENGI','MS0064','3','T3T4R3R4<br>','80',' ','','Y',' '"
p1545
aS"'10510MS  204101','MS  ','ENGI','MS0097','3','W3W4F3F4<br>','150',' ','','Y',' '"
p1546
aS"'10510MS  204102','MS  ','ENGI','MS0097','3','M5M6<br>W5W6<br>','120',' ','','Y',' '"
p1547
aS"'10510MS  205101','MS  ','ENGI','NE0001','3','M1M2R1R2<br>','70',' ','','Y',' '"
p1548
aS"'10510MS  205102','MS  ','ENGI','NE0001','3','W3W4<br>F3F4<br>','70',' ','','Y',' '"
p1549
aS"'10510MS  207100','MS  ','ENGI','EA0013','1','R7R8R9<br>','126',' ','','',' '"
p1550
aS"'10510MS  300301','MS  ','ENGI','MS0003','2','M7M8M9<br>','40',' ','','Y',' '"
p1551
aS"'10510MS  300302','MS  ','ENGI','MS0003','2','T7T8T9<br>','40',' ','','Y',' '"
p1552
aS"'10510MS  302101','MS  ','ENGI','MS0004','3','M3M4W1W2<br>','77',' ','','Y',' '"
p1553
aS"'10510MS  302102','MS  ','ENGI','MS0004','3','W3W4F3F4<br>','80',' ','','Y',' '"
p1554
aS"'10510MS  303201','MS  ','ENGI','MS0147','2','F7F8F9<br>','30',' ','','Y',' '"
p1555
aS"'10510MS  303202','MS  ','ENGI','MS0147','2','F7F8F9<br>','30',' ','','Y',' '"
p1556
aS"'10510MS  307100','MS  ','ENGI','EE0250','3','WaWbWc<br>T3T4R3R4<br>','150',' ','','Y',' '"
p1557
aS"'10510MS  308100','MS  ','ENGI','MS0007','3','R5R6R7<br>','150',' ','','Y',' '"
p1558
aS"'10510MS  309100','MS  ','ENGI','CE0069','3','T7T8T9<br>','50',' ','','Y',' '"
p1559
aS"'10510MS  400200','MS  ','ENGI','MS0036','3','M7M8M9<br>','30',' ','','',' '"
p1560
aS"'10510MS  401100','MS  ','ENGI','MS0008','2',' ',' ',' ','','',' '"
p1561
aS"'10510MS  402100','MS  ','ENGI','MS0188','3','T1T2F1F2<br>','150',' ','','',' '"
p1562
aS"'10510MS  403300','MS  ','ENGI','EE0062','3','M7M8M9<br>','50',' ','','',' '"
p1563
aS"'10510MS  404100','MS  ','ENGI','MS0166','3','T5T6F5F6<br>','78',' ','','',' '"
p1564
aS"'10510MS  406100','MS  ','ENGI','WW0332','3','MnF4Fn<br>','50',' ','','',' '"
p1565
aS"'10510MS  406200','MS  ','ENGI','EE0010','3','M7M8M9<br>','44',' ','','',' '"
p1566
aS"'10510MS  408200','MS  ','ENGI','MS0232','3','T7T8T9<br>','120',' ','','',' '"
p1567
aS"'10510MS  411200','MS  ','ENGI','MS0344','3','T7T8T9<br>','40',' ','','',' '"
p1568
aS"'10510MS  412000','MS  ','ENGI','WW1621','3','F7F8F9<br>','40',' ','','',' '"
p1569
aS"'10510MS  413100','MS  ','ENGI','CE0114','3','F5F6F7<br>','150',' ','','',' '"
p1570
aS"'10510MS  413300','MS  ','ENGI','NT1457','3','W5W6W7<br>','150',' ','','',' '"
p1571
aS"'10510MS  435100','MS  ','ENGI','NT2477','3','T7T8T9<br>','150',' ','','Y',' '"
p1572
aS"'10510MS  435200','MS  ','ENGI','TMP561','3','F2F3F4<br>','34',' ','','',' '"
p1573
aS"'10510MS  441100','MS  ','ENGI','NE2627','1','F5F6<br>','200',' ','','',' '"
p1574
aS"'10510MS  500000','MS  ','ENGI','SS0003','1','R7R8<br>','250',' ','','',' '"
p1575
aS"'10510MS  501100','MS  ','ENGI','MS0014','3','M7M8W7W8<br>','150',' ','','',' '"
p1576
aS"'10510MS  502100','MS  ','ENGI','WW0661','3','T3T4R3R4<br>','80',' ','','',' '"
p1577
aS"'10510MS  503100','MS  ','ENGI','MS0029','3','M3M4T5T6<br>','50',' ','','',' '"
p1578
aS"'10510MS  504100','MS  ','ENGI','MS0191','3','M5M6W5W6<br>','130',' ','','',' '"
p1579
aS"'10510MS  505100','MS  ','ENGI','MS0226','3','F5F6F7<br>','40',' ','','',' '"
p1580
aS"'10510MS  507400','MS  ','ENGI','NT2620','3','W6W7W8<br>','90',' ','','Y',' '"
p1581
aS"'10510MS  509100','MS  ','ENGI','MS0178','3','F1F2F3<br>','50',' ','','',' '"
p1582
aS"'10510MS  511100','MS  ','ENGI','MS0271','3','W8R9F8<br>','10',' ','','',' '"
p1583
aS"'10510MS  521200','MS  ','ENGI','TMP564','3','T2T3T4<br>','30',' ','','',' '"
p1584
aS"'10510MS  522200','MS  ','ENGI','MS0254','3','T7T8T9<br>','30',' ','','',' '"
p1585
aS"'10510MS  527100','MS  ','ENGI','MS0244','3','W7W8W9<br>','50',' ','','',' '"
p1586
aS"'10510MS  539000','MS  ','ENGI','MS0210','3','T2F1F2<br>','50',' ','','',' '"
p1587
aS"'10510MS  539200','MS  ','ENGI','MS0368','3','R2R3R4<br>','30',' ','','',' '"
p1588
aS"'10510MS  540400','MS  ','ENGI','WW0625','3','M2M3M4<br>','70',' ','','',' '"
p1589
aS"'10510MS  565600','MS  ','ENGI','NT0535','3','M2W1W2<br>','30',' ','','',' '"
p1590
aS"'10510MS  574100','MS  ','ENGI','XZ1151','3','T7T8T9<br>','30',' ','','',' '"
p1591
aS"'10510MS  575000','MS  ','ENGI','MS0359','3','M2M3M4<br>','30',' ','','',' '"
p1592
aS"'10510MS  600000','MS  ','ENGI','SS0001','2',' ',' ',' ','','',' '"
p1593
aS"'10510MS  651000','MS  ','ENGI','MS0276','3','W7W8W9<br>','20',' ','','',' '"
p1594
aS"'10510MS  800000','MS  ','ENGI','SS0002','0',' ',' ',' ','','',' '"
p1595
aS"'10510NEMS500000','NEMS','ENGI','SS0003','1','M7M8<br>',' ',' ','','',' '"
p1596
aS"'10510NEMS510000','NEMS','ENGI','NE0317','3','F2F3F4<br>',' ',' ','','',' '"
p1597
aS"'10510NEMS510800','NEMS','ENGI','NT2087','3','W6W7W8<br>',' ',' ','','',' '"
p1598
aS"'10510NEMS512000','NEMS','ENGI','NT0169','3','F2F3F4<br>','16',' ','','',' '"
p1599
aS"'10510NEMS513000','NEMS','ENGI','NT2158','3','F6F7F8<br>','20',' ','','',' '"
p1600
aS"'10510NEMS550100','NEMS','ENGI','IE0269','3','W5W6W7<br>','20',' ','','',' '"
p1601
aS"'10510NEMS550200','NEMS','ENGI','XZ0195','3','F5F6F7<br>',' ',' ','','',' '"
p1602
aS"'10510NEMS580000','NEMS','ENGI','NE0303','3','R2R3R4<br>',' ',' ','','',' '"
p1603
aS"'10510NEMS582000','NEMS','ENGI','NE0329','3','W2W3W4<br>',' ',' ','','',' '"
p1604
aS"'10510NEMS583300','NEMS','ENGI','NT0600','3','R5R6R7<br>',' ',' ','','',' '"
p1605
aS"'10510NEMS584000','NEMS','ENGI','NT0597','3','T2T3T4<br>',' ',' ','','',' '"
p1606
aS"'10510NEMS586000','NEMS','ENGI','NT2610','3','M5M6M9<br>',' ',' ','','',' '"
p1607
aS"'10510NEMS600000','NEMS','ENGI','SS0001','2',' ',' ',' ','','',' '"
p1608
aS"'10510NEMS800000','NEMS','ENGI','SS0002','0',' ',' ',' ','','',' '"
p1609
aS"'10510NES 201000','NES ','NUCL','NE0005','3','M3M4W1W2<br>',' ',' ','','',' '"
p1610
aS"'10510NES 500000','NES ','NUCL','SS0011','0','W7W8<br>','70',' ','','',' '"
p1611
aS"'10510NES 502000','NES ','NUCL','NE0098','3','T3T4R3R4<br>',' ',' ','','',' '"
p1612
aS"'10510NES 511000','NES ','NUCL','NT2403','2','M5M6<br>',' ',' ','','',' '"
p1613
aS"'10510NES 524000','NES ','NUCL','NS0029','3','R6R7R8<br>',' ',' ','','',' '"
p1614
aS"'10510NES 541000','NES ','NUCL','NE0026','3','W3W4F3F4<br>',' ',' ','','',' '"
p1615
aS"'10510NES 545000','NES ','NUCL','NE0116','3','MaMbMc<br>',' ',' ','','',' '"
p1616
aS"'10510NES 559200','NES ','NUCL','NE0306','3','RaRbRc<br>',' ',' ','','',' '"
p1617
aS"'10510NES 598001','NES ','NUCL','SS0003','1','W5W6<br>','25',' ','','',' '"
p1618
aS"'10510NES 598003','NES ','NUCL','SS0003','1','W5W6<br>','25',' ','','',' '"
p1619
aS"'10510NES 598004','NES ','NUCL','SS0003','1','W5W6<br>','25',' ','','',' '"
p1620
aS"'10510NES 598005','NES ','NUCL','SS0003','1','W5W6<br>',' ',' ','','',' '"
p1621
aS"'10510NES 698000','NES ','NUCL','SS0001','2',' ',' ',' ','','',' '"
p1622
aS"'10510NES 999000','NES ','NUCL','SS0002','0',' ',' ',' ','','',' '"
p1623
aS"'10510PE  111001','PE  ','','YY0085','0','M5M6<br>',' ',' ','','','PE1'"
p1624
aS"'10510PE  111002','PE  ','','YY0085','0','M5M6<br>',' ',' ','','','PE1'"
p1625
aS"'10510PE  111003','PE  ','','YY0085','0','M5M6<br>',' ',' ','','','PE1'"
p1626
aS"'10510PE  111004','PE  ','','YY0085','0','M5M6<br>',' ',' ','','','PE1'"
p1627
aS"'10510PE  111005','PE  ','','YY0085','0','M5M6<br>',' ',' ','','','PE1'"
p1628
aS"'10510PE  111006','PE  ','','YY0085','0','M5M6<br>',' ',' ','','','PE1'"
p1629
aS"'10510PE  111007','PE  ','','YY0085','0','M5M6<br>',' ',' ','','','PE1'"
p1630
aS"'10510PE  111008','PE  ','','YY0085','0','M5M6<br>',' ',' ','','','PE1'"
p1631
aS"'10510PE  111009','PE  ','','YY0085','0','M5M6<br>',' ',' ','','','PE1'"
p1632
aS"'10510PE  111010','PE  ','','YY0085','0','M5M6<br>',' ',' ','','','PE1'"
p1633
aS"'10510PE  111011','PE  ','','YY0085','0','M7M8<br>',' ',' ','','','PE1'"
p1634
aS"'10510PE  111012','PE  ','','YY0085','0','M7M8<br>',' ',' ','','','PE1'"
p1635
aS"'10510PE  111013','PE  ','','YY0085','0','M7M8<br>',' ',' ','','','PE1'"
p1636
aS"'10510PE  111014','PE  ','','YY0085','0','M7M8<br>',' ',' ','','','PE1'"
p1637
aS"'10510PE  111015','PE  ','','YY0085','0','M7M8<br>',' ',' ','','','PE1'"
p1638
aS"'10510PE  111016','PE  ','','YY0085','0','M7M8<br>',' ',' ','','','PE1'"
p1639
aS"'10510PE  111017','PE  ','','YY0085','0','M7M8<br>',' ',' ','','','PE1'"
p1640
aS"'10510PE  111018','PE  ','','YY0085','0','M7M8<br>',' ',' ','','','PE1'"
p1641
aS"'10510PE  111019','PE  ','','YY0085','0','F5F6<br>',' ',' ','','','PE1'"
p1642
aS"'10510PE  111020','PE  ','','YY0085','0','F5F6<br>',' ',' ','','','PE1'"
p1643
aS"'10510PE  111021','PE  ','','YY0085','0','F5F6<br>',' ',' ','','','PE1'"
p1644
aS"'10510PE  111022','PE  ','','YY0085','0','F5F6<br>',' ',' ','','','PE1'"
p1645
aS"'10510PE  111023','PE  ','','YY0085','0','F5F6<br>',' ',' ','','','PE1'"
p1646
aS"'10510PE  111024','PE  ','','YY0085','0','F5F6<br>',' ',' ','','','PE1'"
p1647
aS"'10510PE  111025','PE  ','','YY0085','0','F5F6<br>',' ',' ','','','PE1'"
p1648
aS"'10510PE  111026','PE  ','','YY0085','0','F5F6<br>',' ',' ','','','PE1'"
p1649
aS"'10510PE  111027','PE  ','','YY0085','0','F7F8<br>',' ',' ','','','PE1'"
p1650
aS"'10510PE  111028','PE  ','','YY0085','0','F7F8<br>',' ',' ','','','PE1'"
p1651
aS"'10510PE  111029','PE  ','','YY0085','0','F7F8<br>',' ',' ','','','PE1'"
p1652
aS"'10510PE  111030','PE  ','','YY0085','0','F7F8<br>',' ',' ','','','PE1'"
p1653
aS"'10510PE  111031','PE  ','','YY0085','0','F7F8<br>',' ',' ','','','PE1'"
p1654
aS"'10510PE  111032','PE  ','','YY0085','0','F7F8<br>',' ',' ','','','PE1'"
p1655
aS"'10510PE  111033','PE  ','','YY0085','0','F7F8<br>',' ',' ','','','PE1'"
p1656
aS"'10510PE  111034','PE  ','','YY0085','0','F7F8<br>',' ',' ','','','PE1'"
p1657
aS"'10510PE  205001','PE  ','','YY0329','0','M1M2<br>','36',' ','2','','PE'"
p1658
aS"'10510PE  205002','PE  ','','YY0230','0','M3M4<br>','36',' ','2','','PE'"
p1659
aS"'10510PE  205003','PE  ','','YY0234','0','M3M4<br>','36',' ','2','','PE'"
p1660
aS"'10510PE  205004','PE  ','','YY0329','0','M3M4<br>','36',' ','2','','PE'"
p1661
aS"'10510PE  205005','PE  ','','YY0241','0','T1T2<br>','36',' ','2','','PE'"
p1662
aS"'10510PE  205006','PE  ','','YY0293','0','T1T2<br>','36',' ','2','','PE'"
p1663
aS"'10510PE  205008','PE  ','','YY0236','0','T3T4<br>','30',' ','2','','PE'"
p1664
aS"'10510PE  205009','PE  ','','YY0241','0','T3T4<br>','36',' ','2','','PE'"
p1665
aS"'10510PE  205010','PE  ','','YY0230','0','T3T4<br>','36',' ','2','','PE'"
p1666
aS"'10510PE  205011','PE  ','','YY0231','0','T3T4<br>','36',' ','2','','PE'"
p1667
aS"'10510PE  205012','PE  ','','YY0234','0','T3T4<br>','36',' ','2','','PE'"
p1668
aS"'10510PE  205013','PE  ','','YY0272','0','T3T4<br>','30',' ','2','','PE'"
p1669
aS"'10510PE  205014','PE  ','','YY0240','0','T5T6<br>','32',' ','2','','PE'"
p1670
aS"'10510PE  205015','PE  ','','YY0238','0','T5T6<br>','30',' ','2','','PE'"
p1671
aS"'10510PE  205016','PE  ','','YY0244','0','T5T6<br>','36',' ','2','','PE'"
p1672
aS"'10510PE  205017','PE  ','','YY0247','0','T5T6<br>','36',' ','2','','PE'"
p1673
aS"'10510PE  205018','PE  ','','YY0245','0','T5T6<br>','36',' ','2','','PE'"
p1674
aS"'10510PE  205019','PE  ','','YY0241','0','T5T6<br>','36',' ','2','','PE'"
p1675
aS"'10510PE  205020','PE  ','','YY0287','0','T5T6<br>','36',' ','2','','PE'"
p1676
aS"'10510PE  205021','PE  ','','YY0289','0','T5T6<br>','36',' ','2','','PE'"
p1677
aS"'10510PE  205022','PE  ','','YY0227','0','T5T6<br>','36',' ','2','','PE'"
p1678
aS"'10510PE  205023','PE  ','','YY0309','0','T5T6<br>','36',' ','2','','PE'"
p1679
aS"'10510PE  205024','PE  ','','YY0272','0','T5T6<br>','30',' ','2','','PE'"
p1680
aS"'10510PE  205025','PE  ','','YY0255','0','T5T6<br>','36',' ','2','','PE'"
p1681
aS"'10510PE  205026','PE  ','','YY0240','0','T7T8<br>','32',' ','2','','PE'"
p1682
aS"'10510PE  205027','PE  ','','YY0238','0','T7T8<br>','30',' ','2','','PE'"
p1683
aS"'10510PE  205028','PE  ','','YY0244','0','T7T8<br>','36',' ','2','','PE'"
p1684
aS"'10510PE  205029','PE  ','','YY0247','0','T7T8<br>','36',' ','2','','PE'"
p1685
aS"'10510PE  205030','PE  ','','YY0245','0','T7T8<br>','36',' ','2','','PE'"
p1686
aS"'10510PE  205031','PE  ','','YY0241','0','T7T8<br>','36',' ','2','','PE'"
p1687
aS"'10510PE  205032','PE  ','','YY0287','0','T7T8<br>','36',' ','2','','PE'"
p1688
aS"'10510PE  205033','PE  ','','YY0289','0','T7T8<br>','36',' ','2','','PE'"
p1689
aS"'10510PE  205034','PE  ','','YY0309','0','T7T8<br>','36',' ','2','','PE'"
p1690
aS"'10510PE  205035','PE  ','','YY0255','0','T7T8<br>','36',' ','2','','PE'"
p1691
aS"'10510PE  205036','PE  ','','YY0248','0','W1W2<br>','32',' ','2','','PE'"
p1692
aS"'10510PE  205037','PE  ','','YY0293','0','F3F4<br>','36',' ','2','','PE'"
p1693
aS"'10510PE  205038','PE  ','','YY0302','0','W3W4<br>','36',' ','2','','PE'"
p1694
aS"'10510PE  205039','PE  ','','YY0248','0','W3W4<br>','32',' ','2','','PE'"
p1695
aS"'10510PE  205040','PE  ','','YY0241','0','W3W4<br>','36',' ','2','','PE'"
p1696
aS"'10510PE  205041','PE  ','','YY0230','0','W3W4<br>','36',' ','2','','PE'"
p1697
aS"'10510PE  205042','PE  ','','YY0247','0','W3W4<br>','36',' ','2','','PE'"
p1698
aS"'10510PE  205043','PE  ','','YY0234','0','W5W6<br>','36',' ','2','','PE'"
p1699
aS"'10510PE  205044','PE  ','','YY0255','0','W5W6<br>','36',' ','2','','PE'"
p1700
aS"'10510PE  205045','PE  ','','YY0241','0','W5W6<br>','36',' ','2','','PE'"
p1701
aS"'10510PE  205046','PE  ','','YY0248','0','W5W6<br>','32',' ','2','','PE'"
p1702
aS"'10510PE  205047','PE  ','','YY0242','0','W5W6<br>','20',' ','2','','PE'"
p1703
aS"'10510PE  205048','PE  ','','YY0302','0','W5W6<br>','36',' ','2','','PE'"
p1704
aS"'10510PE  205049','PE  ','','YY0236','0','W5W6<br>','30',' ','2','','PE'"
p1705
aS"'10510PE  205050','PE  ','','YY0247','0','W5W6<br>','36',' ','2','','PE'"
p1706
aS"'10510PE  205051','PE  ','','YY0305','0','W5W6<br>','36',' ','2','','PE'"
p1707
aS"'10510PE  205052','PE  ','','YY0234','0','W7W8<br>','36',' ','2','','PE'"
p1708
aS"'10510PE  205053','PE  ','','YY0255','0','W7W8<br>','36',' ','2','','PE'"
p1709
aS"'10510PE  205054','PE  ','','YY0241','0','W7W8<br>','36',' ','2','','PE'"
p1710
aS"'10510PE  205055','PE  ','','YY0248','0','W7W8<br>','32',' ','2','','PE'"
p1711
aS"'10510PE  205056','PE  ','','YY0242','0','W7W8<br>','20',' ','2','','PE'"
p1712
aS"'10510PE  205057','PE  ','','YY0231','0','W7W8<br>','36',' ','2','','PE'"
p1713
aS"'10510PE  205058','PE  ','','YY0238','0','W7W8<br>','30',' ','2','','PE'"
p1714
aS"'10510PE  205059','PE  ','','YY0237','0','W7W8<br>','36',' ','2','','PE'"
p1715
aS"'10510PE  205060','PE  ','','YY0287','0','W7W8<br>','36',' ','2','','PE'"
p1716
aS"'10510PE  205061','PE  ','','YY0248','0','R1R2<br>','32',' ','2','','PE'"
p1717
aS"'10510PE  205062','PE  ','','YY0236','0','R1R2<br>','30',' ','2','','PE'"
p1718
aS"'10510PE  205063','PE  ','','YY0233','0','R1R2<br>','36',' ','2','','PE'"
p1719
aS"'10510PE  205064','PE  ','','YY0248','0','R3R4<br>','32',' ','2','','PE'"
p1720
aS"'10510PE  205065','PE  ','','YY0236','0','R3R4<br>','30',' ','2','','PE'"
p1721
aS"'10510PE  205066','PE  ','','YY0233','0','R3R4<br>','36',' ','2','','PE'"
p1722
aS"'10510PE  205067','PE  ','','YY0250','0','R5R6<br>','36',' ','2','','PE'"
p1723
aS"'10510PE  205068','PE  ','','YY0248','0','R5R6<br>','32',' ','2','','PE'"
p1724
aS"'10510PE  205069','PE  ','','YY0236','0','R5R6<br>','30',' ','2','','PE'"
p1725
aS"'10510PE  205070','PE  ','','YY0237','0','R5R6<br>','36',' ','2','','PE'"
p1726
aS"'10510PE  205071','PE  ','','YY0253','0','R5R6<br>','36',' ','2','','PE'"
p1727
aS"'10510PE  205072','PE  ','','YY0328','0','R5R6<br>','20',' ','2','','PE'"
p1728
aS"'10510PE  205073','PE  ','','YY0272','0','R5R6<br>','30',' ','2','','PE'"
p1729
aS"'10510PE  205074','PE  ','','YY0252','0','R5R6<br>','36',' ','2','','PE'"
p1730
aS"'10510PE  205075','PE  ','','YY0249','0','R5R6<br>','36',' ','2','','PE'"
p1731
aS"'10510PE  205076','PE  ','','YY0250','0','R7R8<br>','36',' ','2','','PE'"
p1732
aS"'10510PE  205077','PE  ','','YY0230','0','R7R8<br>','36',' ','2','','PE'"
p1733
aS"'10510PE  205078','PE  ','','YY0248','0','R7R8<br>','32',' ','2','','PE'"
p1734
aS"'10510PE  205079','PE  ','','YY0238','0','R7R8<br>','30',' ','2','','PE'"
p1735
aS"'10510PE  205080','PE  ','','YY0237','0','R7R8<br>','36',' ','2','','PE'"
p1736
aS"'10510PE  205081','PE  ','','YY0253','0','R7R8<br>','36',' ','2','','PE'"
p1737
aS"'10510PE  205082','PE  ','','YY0328','0','R7R8<br>','20',' ','2','','PE'"
p1738
aS"'10510PE  205083','PE  ','','YY0272','0','R7R8<br>','30',' ','2','','PE'"
p1739
aS"'10510PE  205084','PE  ','','YY0252','0','R7R8<br>','36',' ','2','','PE'"
p1740
aS"'10510PE  205085','PE  ','','YY0249','0','R7R8<br>','36',' ','2','','PE'"
p1741
aS"'10510PE  205086','PE  ','','YY0241','0','F1F2<br>','36',' ','2','','PE'"
p1742
aS"'10510PE  205087','PE  ','','YY0247','0','F1F2<br>','36',' ','2','','PE'"
p1743
aS"'10510PE  205088','PE  ','','YY0246','0','F1F2<br>','36',' ','2','','PE'"
p1744
aS"'10510PE  205089','PE  ','','YY0241','0','F3F4<br>','36',' ','2','','PE'"
p1745
aS"'10510PE  205090','PE  ','','YY0228','0','F3F4<br>','36',' ','2','','PE'"
p1746
aS"'10510PE  205091','PE  ','','YY0246','0','F3F4<br>','36',' ','2','','PE'"
p1747
aS"'10510PE  205092','PE  ','','YY0231','0','M5M6<br>','36',' ','2','','PE'"
p1748
aS"'10510PE  205093','PE  ','','YY0232','0','M7M8<br>','20',' ','2','','PE'"
p1749
aS"'10510PE  205094','PE  ','','YY0293','0','M7M8<br>','36',' ','2','','PE'"
p1750
aS"'10510PE  205095','PE  ','','YY0285','0','F5F6<br>','36',' ','2','','PE'"
p1751
aS"'10510PE  205096','PE  ','','YY0285','0','F7F8<br>','36',' ','2','','PE'"
p1752
aS"'10510PE  205097','PE  ','','YY0105','0','MaMb<br>','0',' ','2','','PE'"
p1753
aS"'10510PE  333001','PE  ','','YY0257','0',' ',' ',' ','','','PE3'"
p1754
aS"'10510PE  333002','PE  ','','YY0256','0',' ',' ',' ','','','PE3'"
p1755
aS"'10510PE  333003','PE  ','','YY0258','0',' ',' ',' ','','','PE3'"
p1756
aS"'10510PE  333004','PE  ','','YY0259','0',' ',' ',' ','','','PE3'"
p1757
aS"'10510PE  333005','PE  ','','YY0261','0',' ',' ',' ','','','PE3'"
p1758
aS"'10510PE  333006','PE  ','','YY0260','0',' ',' ',' ','','','PE3'"
p1759
aS"'10510PE  333007','PE  ','','YY0262','0',' ',' ',' ','','','PE3'"
p1760
aS"'10510PE  333008','PE  ','','YY0263','0',' ',' ',' ','','','PE3'"
p1761
aS"'10510PE  333009','PE  ','','YY0281','0',' ',' ',' ','','','PE3'"
p1762
aS"'10510PE  333010','PE  ','','YY0282','0',' ',' ',' ','','','PE3'"
p1763
aS"'10510PE  333011','PE  ','','YY0283','0',' ',' ',' ','','','PE3'"
p1764
aS"'10510PE  333012','PE  ','','YY0284','0',' ',' ',' ','','','PE3'"
p1765
aS"'10510PE  333013','PE  ','','YY0279','0',' ',' ',' ','','','PE3'"
p1766
aS"'10510PE  333014','PE  ','','YY0280','0',' ',' ',' ','','','PE3'"
p1767
aS"'10510PE  111001','PE  ','','YY0085','0','M5M6<br>',' ',' ','','','PE1'"
p1768
aS"'10510PE  111002','PE  ','','YY0085','0','M5M6<br>',' ',' ','','','PE1'"
p1769
aS"'10510PE  111003','PE  ','','YY0085','0','M5M6<br>',' ',' ','','','PE1'"
p1770
aS"'10510PE  111004','PE  ','','YY0085','0','M5M6<br>',' ',' ','','','PE1'"
p1771
aS"'10510PE  111005','PE  ','','YY0085','0','M5M6<br>',' ',' ','','','PE1'"
p1772
aS"'10510PE  111006','PE  ','','YY0085','0','M5M6<br>',' ',' ','','','PE1'"
p1773
aS"'10510PE  111007','PE  ','','YY0085','0','M5M6<br>',' ',' ','','','PE1'"
p1774
aS"'10510PE  111008','PE  ','','YY0085','0','M5M6<br>',' ',' ','','','PE1'"
p1775
aS"'10510PE  111009','PE  ','','YY0085','0','M5M6<br>',' ',' ','','','PE1'"
p1776
aS"'10510PE  111010','PE  ','','YY0085','0','M5M6<br>',' ',' ','','','PE1'"
p1777
aS"'10510PE  111011','PE  ','','YY0085','0','M7M8<br>',' ',' ','','','PE1'"
p1778
aS"'10510PE  111012','PE  ','','YY0085','0','M7M8<br>',' ',' ','','','PE1'"
p1779
aS"'10510PE  111013','PE  ','','YY0085','0','M7M8<br>',' ',' ','','','PE1'"
p1780
aS"'10510PE  111014','PE  ','','YY0085','0','M7M8<br>',' ',' ','','','PE1'"
p1781
aS"'10510PE  111015','PE  ','','YY0085','0','M7M8<br>',' ',' ','','','PE1'"
p1782
aS"'10510PE  111016','PE  ','','YY0085','0','M7M8<br>',' ',' ','','','PE1'"
p1783
aS"'10510PE  111017','PE  ','','YY0085','0','M7M8<br>',' ',' ','','','PE1'"
p1784
aS"'10510PE  111018','PE  ','','YY0085','0','M7M8<br>',' ',' ','','','PE1'"
p1785
aS"'10510PE  111019','PE  ','','YY0085','0','F5F6<br>',' ',' ','','','PE1'"
p1786
aS"'10510PE  111020','PE  ','','YY0085','0','F5F6<br>',' ',' ','','','PE1'"
p1787
aS"'10510PE  111021','PE  ','','YY0085','0','F5F6<br>',' ',' ','','','PE1'"
p1788
aS"'10510PE  111022','PE  ','','YY0085','0','F5F6<br>',' ',' ','','','PE1'"
p1789
aS"'10510PE  111023','PE  ','','YY0085','0','F5F6<br>',' ',' ','','','PE1'"
p1790
aS"'10510PE  111024','PE  ','','YY0085','0','F5F6<br>',' ',' ','','','PE1'"
p1791
aS"'10510PE  111025','PE  ','','YY0085','0','F5F6<br>',' ',' ','','','PE1'"
p1792
aS"'10510PE  111026','PE  ','','YY0085','0','F5F6<br>',' ',' ','','','PE1'"
p1793
aS"'10510PE  111027','PE  ','','YY0085','0','F7F8<br>',' ',' ','','','PE1'"
p1794
aS"'10510PE  111028','PE  ','','YY0085','0','F7F8<br>',' ',' ','','','PE1'"
p1795
aS"'10510PE  111029','PE  ','','YY0085','0','F7F8<br>',' ',' ','','','PE1'"
p1796
aS"'10510PE  111030','PE  ','','YY0085','0','F7F8<br>',' ',' ','','','PE1'"
p1797
aS"'10510PE  111031','PE  ','','YY0085','0','F7F8<br>',' ',' ','','','PE1'"
p1798
aS"'10510PE  111032','PE  ','','YY0085','0','F7F8<br>',' ',' ','','','PE1'"
p1799
aS"'10510PE  111033','PE  ','','YY0085','0','F7F8<br>',' ',' ','','','PE1'"
p1800
aS"'10510PE  111034','PE  ','','YY0085','0','F7F8<br>',' ',' ','','','PE1'"
p1801
aS"'10510PE  333001','PE  ','','YY0257','0',' ',' ',' ','','','PE3'"
p1802
aS"'10510PE  333002','PE  ','','YY0256','0',' ',' ',' ','','','PE3'"
p1803
aS"'10510PE  333003','PE  ','','YY0258','0',' ',' ',' ','','','PE3'"
p1804
aS"'10510PE  333004','PE  ','','YY0259','0',' ',' ',' ','','','PE3'"
p1805
aS"'10510PE  333005','PE  ','','YY0261','0',' ',' ',' ','','','PE3'"
p1806
aS"'10510PE  333006','PE  ','','YY0260','0',' ',' ',' ','','','PE3'"
p1807
aS"'10510PE  333007','PE  ','','YY0262','0',' ',' ',' ','','','PE3'"
p1808
aS"'10510PE  333008','PE  ','','YY0263','0',' ',' ',' ','','','PE3'"
p1809
aS"'10510PE  333009','PE  ','','YY0281','0',' ',' ',' ','','','PE3'"
p1810
aS"'10510PE  333010','PE  ','','YY0282','0',' ',' ',' ','','','PE3'"
p1811
aS"'10510PE  333011','PE  ','','YY0283','0',' ',' ',' ','','','PE3'"
p1812
aS"'10510PE  333012','PE  ','','YY0284','0',' ',' ',' ','','','PE3'"
p1813
aS"'10510PE  333013','PE  ','','YY0279','0',' ',' ',' ','','','PE3'"
p1814
aS"'10510PE  333014','PE  ','','YY0280','0',' ',' ',' ','','','PE3'"
p1815
aS"'10510PHIL501200','PHIL','CHS','SS0016','2','W7W8W9<br>',' ',' ','','',' '"
p1816
aS"'10510PHIL521000','PHIL','CHS','PL0006','3','T6T7T8<br>',' ',' ','','',' '"
p1817
aS"'10510PHIL541100','PHIL','CHS','PL0064','3','F3F4Fn<br>',' ',' ','','',' '"
p1818
aS"'10510PHIL562200','PHIL','CHS','PL0096','3','R7R8R9<br>',' ',' ','','',' '"
p1819
aS"'10510PHIL571200','PHIL','CHS','NT2214','3','F7F8F9<br>',' ',' ','','',' '"
p1820
aS"'10510PHIL584000','PHIL','CHS','SN0090','3','W2W3W4<br>',' ',' ','','',' '"
p1821
aS"'10510PHIL585500','PHIL','CHS','NT2308','3','M3M4Mn<br>',' ',' ','','',' '"
p1822
aS"'10510PHIL586700','PHIL','CHS','NT2604','3','W3W4Wn<br>',' ',' ','','',' '"
p1823
aS"'10510PHIL599000','PHIL','CHS','NT2616','3','T3T4Tn<br>',' ',' ','','',' '"
p1824
aS"'10510PHIL600000','PHIL','CHS','SS0001','2',' ',' ',' ','','',' '"
p1825
aS"'10510PHYS101001','PHYS','SCI','PH0002','1','M5M6M7M8<br>','55',' ','','',' '"
p1826
aS"'10510PHYS101002','PHYS','SCI','PH0002','1','M5M6M7M8<br>','55',' ','','',' '"
p1827
aS"'10510PHYS101003','PHYS','SCI','PH0002','1','M5M6M7M8<br>','60',' ','','',' '"
p1828
aS"'10510PHYS101004','PHYS','SCI','PH0002','1','M5M6M7M8<br>','60',' ','','',' '"
p1829
aS"'10510PHYS101005','PHYS','SCI','PH0002','1','T5T6T7T8<br>','60',' ','','',' '"
p1830
aS"'10510PHYS101006','PHYS','SCI','PH0002','1','T5T6T7T8<br>','60',' ','','',' '"
p1831
aS"'10510PHYS101007','PHYS','SCI','PH0002','1','T5T6T7T8<br>','55',' ','','',' '"
p1832
aS"'10510PHYS101008','PHYS','SCI','PH0002','1','T5T6T7T8<br>','61',' ','','',' '"
p1833
aS"'10510PHYS101009','PHYS','SCI','PH0002','1','W5W6W7W8<br>','55',' ','','',' '"
p1834
aS"'10510PHYS101010','PHYS','SCI','PH0002','1','W5W6W7W8<br>','55',' ','','',' '"
p1835
aS"'10510PHYS101011','PHYS','SCI','PH0002','1','W5W6W7W8<br>','55',' ','','',' '"
p1836
aS"'10510PHYS101012','PHYS','SCI','PH0002','1','R5R6R7R8<br>','55',' ','','',' '"
p1837
aS"'10510PHYS101013','PHYS','SCI','PH0002','1','R5R6R7R8<br>','55',' ','','',' '"
p1838
aS"'10510PHYS101014','PHYS','SCI','PH0002','1','R5R6R7R8<br>','55',' ','','',' '"
p1839
aS"'10510PHYS101015','PHYS','SCI','PH0002','1','R5R6R7R8<br>','55',' ','','',' '"
p1840
aS"'10510PHYS101016','PHYS','SCI','PH0002','1','F5F6F7F8<br>','55',' ','','',' '"
p1841
aS"'10510PHYS101017','PHYS','SCI','PH0002','1','F5F6F7F8<br>','55',' ','','',' '"
p1842
aS"'10510PHYS101018','PHYS','SCI','PH0002','1','F5F6F7F8<br>','55',' ','','',' '"
p1843
aS"'10510PHYS101019','PHYS','SCI','PH0002','1','F5F6F7F8<br>','55',' ','','',' '"
p1844
aS"'10510PHYS113000','PHYS','SCI','PH0181','4','T3T4R3R4<br>','105',' ','','',' '"
p1845
aS"'10510PHYS113301','PHYS','SCI','PH0161','3','T1T2F1F2<br>','120',' ','','',' '"
p1846
aS"'10510PHYS113302','PHYS','SCI','PH0161','3','T1T2F1F2<br>','120',' ','','',' '"
p1847
aS"'10510PHYS113303','PHYS','SCI','PH0161','3','T1T2F1F2<br>','120',' ','','',' '"
p1848
aS"'10510PHYS113304','PHYS','SCI','PH0161','3','T1T2F1F2<br>','120',' ','','',' '"
p1849
aS"'10510PHYS113305','PHYS','SCI','PH0161','3','T1T2F1F2<br>','120',' ','','',' '"
p1850
aS"'10510PHYS113306','PHYS','SCI','PH0161','3','T1T2F1F2<br>','120',' ','','',' '"
p1851
aS"'10510PHYS113307','PHYS','SCI','PH0161','3','T1T2F1F2<br>','70',' ','','',' '"
p1852
aS"'10510PHYS113308','PHYS','SCI','PH0161','3','T7T8R7<br>','120',' ','','',' '"
p1853
aS"'10510PHYS113401','PHYS','SCI','PH0172','4','T3T4R3R4<br>','120',' ','','',' '"
p1854
aS"'10510PHYS113402','PHYS','SCI','PH0172','4','T3T4R3R4<br>','110',' ','','',' '"
p1855
aS"'10510PHYS113403','PHYS','SCI','PH0172','4','T3T4R3R4<br>','110',' ','','',' '"
p1856
aS"'10510PHYS201001','PHYS','SCI','XA0080','2','T5T6T7T8<br>','30',' ','','',' '"
p1857
aS"'10510PHYS201002','PHYS','SCI','XA0080','2','F5F6F7F8<br>','30',' ','','',' '"
p1858
aS"'10510PHYS201003','PHYS','SCI','XA0080','2','M5M6M7M8<br>','30',' ','','',' '"
p1859
aS"'10510PHYS212000','PHYS','SCI','PH0147','3','M2R1R2<br>','120',' ','','Y',' '"
p1860
aS"'10510PHYS221000','PHYS','SCI','PH0006','3','M3M4W2<br>','120',' ','','Y',' '"
p1861
aS"'10510PHYS231000','PHYS','SCI','PH0026','3','T3T4R4<br>','120',' ','','Y',' '"
p1862
aS"'10510PHYS241000','PHYS','SCI','PH0138','3','M7M8M9<br>','100','*7','3','',' '"
p1863
aS"'10510PHYS303001','PHYS','SCI','EA0027','2','T5T6T7T8<br>','32',' ','','',' '"
p1864
aS"'10510PHYS303002','PHYS','SCI','EA0027','2','F5F6F7F8<br>','32',' ','','',' '"
p1865
aS"'10510PHYS308002','PHYS','SCI','EA0004','2','R6R7R8R9<br>','20',' ','','',' '"
p1866
aS"'10510PHYS310000','PHYS','SCI','EA0019','3','M5M6R5<br>',' ',' ','','',' '"
p1867
aS"'10510PHYS317000','PHYS','SCI','MA0206','3','MnM5M6<br>',' ',' ','','',' '"
p1868
aS"'10510PHYS325000','PHYS','SCI','NE0310','3','M3M4W2<br>','100',' ','','Y',' '"
p1869
aS"'10510PHYS332000','PHYS','SCI','PH0145','3','T4R3R4<br>','80',' ','','Y',' '"
p1870
aS"'10510PHYS345000','PHYS','SCI','PH0013','3','T1T2F1F2<br>','105',' ','','Y',' '"
p1871
aS"'10510PHYS360000','PHYS','SCI','SS0098','1','W3W4<br>','20',' ','','',' '"
p1872
aS"'10510PHYS431000','PHYS','SCI','PH0152','3','M7M8M9<br>',' ',' ','','Y',' '"
p1873
aS"'10510PHYS433000','PHYS','SCI','PH0092','3','T7T8T9<br>',' ',' ','','',' '"
p1874
aS"'10510PHYS451000','PHYS','SCI','PH0015','3','RaRbRc<br>','25',' ','','Y',' '"
p1875
aS"'10510PHYS463000','PHYS','SCI','PH0177','3','T3T4F4<br>',' ',' ','','',' '"
p1876
aS"'10510PHYS467000','PHYS','SCI','NT0628','3','RaRbRc<br>',' ',' ','','',' '"
p1877
aS"'10510PHYS471000','PHYS','SCI','PH0017','3','W6W7W8<br>',' ',' ','','Y',' '"
p1878
aS"'10510PHYS483000','PHYS','SCI','MB0004','3','R6R7R8<br>',' ',' ','','',' '"
p1879
aS"'10510PHYS491000','PHYS','SCI','NT0587','1',' ',' ',' ','','',' '"
p1880
aS"'10510PHYS505000','PHYS','SCI','PH0069','2','F5F6F7F8<br>','20',' ','','',' '"
p1881
aS"'10510PHYS520000','PHYS','SCI','PH0014','3','T7T8T9<br>',' ',' ','','Y',' '"
p1882
aS"'10510PHYS523000','PHYS','SCI','WW0938','3','M7M8M9<br>',' ',' ','','Y',' '"
p1883
aS"'10510PHYS531000','PHYS','SCI','PH0019','3','M5M6Tn<br>',' ',' ','','Y',' '"
p1884
aS"'10510PHYS535000','PHYS','SCI','PH0098','3','F5F6F7<br>',' ',' ','','',' '"
p1885
aS"'10510PHYS541000','PHYS','SCI','PH0020','3','W3F3F4<br>',' ',' ','','',' '"
p1886
aS"'10510PHYS563000','PHYS','SCI','XA0011','3','T6F3F4<br>',' ',' ','','',' '"
p1887
aS"'10510PHYS571000','PHYS','SCI','PH0184','3','M7M8Rn<br>',' ',' ','','',' '"
p1888
aS"'10510PHYS584000','PHYS','SCI','PH0060','3','W4R3R4<br>',' ',' ','','',' '"
p1889
aS"'10510PHYS592000','PHYS','SCI','NT2402','3','MaMbMc<br>','32',' ','','',' '"
p1890
aS"'10510PHYS593000','PHYS','SCI','SS0021','1','W5W6<br>',' ',' ','','',' '"
p1891
aS"'10510PHYS595001','PHYS','SCI','NT1417','1','RnR5<br>',' ',' ','','',' '"
p1892
aS"'10510PHYS595002','PHYS','SCI','NT1419','1','T5T6<br>','30',' ','','',' '"
p1893
aS"'10510PHYS595003','PHYS','SCI','NT1418','1','M5M6<br>',' ',' ','','',' '"
p1894
aS"'10510PHYS597001','PHYS','SCI','NT2111','3','M3M4Mn<br>',' ',' ','','',' '"
p1895
aS"'10510PHYS597002','PHYS','SCI','NT1420','3','W7W8W9<br>','30',' ','','',' '"
p1896
aS"'10510PHYS621000','PHYS','SCI','PH0169','3','R5R6R7<br>',' ',' ','','',' '"
p1897
aS"'10510PHYS651000','PHYS','SCI','PH0038','3','M5M6M7<br>','25',' ','','',' '"
p1898
aS"'10510PHYS691000','PHYS','SCI','SS0001','2',' ',' ',' ','','',' '"
p1899
aS"'10510PHYS991000','PHYS','SCI','SS0002','0',' ',' ',' ','','',' '"
p1900
aS"'10510PME 101301','PME ','ENGI','NE0002','2','T6T7T8<br>','72',' ','','',' '"
p1901
aS"'10510PME 101302','PME ','ENGI','NE0002','2','M7M8M9<br>','60',' ','','',' '"
p1902
aS"'10510PME 101303','PME ','ENGI','NE0188','2','F7F8F9<br>','60',' ','','',' '"
p1903
aS"'10510PME 101304','PME ','ENGI','NE0188','2','R7R8R9<br>','61',' ','','',' '"
p1904
aS"'10510PME 101500','PME ','ENGI','EA0007','1','W6W7W8<br>','55',' ','','',' '"
p1905
aS"'10510PME 134101','PME ','ENGI','PM0002','2','M7M8<br>','65',' ','','',' '"
p1906
aS"'10510PME 134102','PME ','ENGI','PM0002','2','W7W8<br>','65',' ','','',' '"
p1907
aS"'10510PME 200101','PME ','ENGI','EA0002','3','M3M4W2<br>','63',' ','','',' '"
p1908
aS"'10510PME 200102','PME ','ENGI','EA0002','3','M3M4R4<br>','65',' ','','',' '"
p1909
aS"'10510PME 200601','PME ','ENGI','EA0030','1',' ','2',' ','','Y',' '"
p1910
aS"'10510PME 200602','PME ','ENGI','EA0030','1',' ','4',' ','','Y',' '"
p1911
aS"'10510PME 200603','PME ','ENGI','EA0030','1',' ','12',' ','','Y',' '"
p1912
aS"'10510PME 210301','PME ','ENGI','PM0248','3','T3T4R3<br>','60',' ','','',' '"
p1913
aS"'10510PME 210302','PME ','ENGI','PM0248','3','T3T4R3<br>','60',' ','','',' '"
p1914
aS"'10510PME 220101','PME ','ENGI','PM0221','3','W3W4F3<br>','65',' ','','',' '"
p1915
aS"'10510PME 220102','PME ','ENGI','PM0221','3','W3W4F3F4<br>','65',' ','','',' '"
p1916
aS"'10510PME 242501','PME ','ENGI','PM0003','3','M5M6R5<br>','65',' ','','',' '"
p1917
aS"'10510PME 242502','PME ','ENGI','PM0003','3','M5M6R5<br>','65',' ','','',' '"
p1918
aS"'10510PME 243101','PME ','ENGI','PM0085','3','T1T2F2<br>','65',' ','','',' '"
p1919
aS"'10510PME 243102','PME ','ENGI','PM0085','3','T1T2F2<br>','60',' ','','',' '"
p1920
aS"'10510PME 300500','PME ','ENGI','PM0005','3','W6W7W8<br>',' ',' ','','',' '"
p1921
aS"'10510PME 300700','PME ','ENGI','WW0437','3','R5R6R7<br>',' ',' ','','',' '"
p1922
aS"'10510PME 311300','PME ','ENGI','NT2016','3','F1F2F3<br>',' ',' ','','',' '"
p1923
aS"'10510PME 320200','PME ','ENGI','WW0088','3','M3M4W2<br>','60',' ','','',' '"
p1924
aS"'10510PME 320701','PME ','ENGI','PM0165','3','M7M8F3<br>','60',' ','','',' '"
p1925
aS"'10510PME 320702','PME ','ENGI','PM0165','3','M7M8F3<br>','60',' ','','',' '"
p1926
aS"'10510PME 321200','PME ','ENGI','WW0332','3','W5W6W7<br>',' ',' ','','',' '"
p1927
aS"'10510PME 334600','PME ','ENGI','NT2068','2','W6W7<br>',' ',' ','','',' '"
p1928
aS"'10510PME 343301','PME ','ENGI','PM0288','3','W3W4F4<br>','65',' ','','',' '"
p1929
aS"'10510PME 343302','PME ','ENGI','PM0288','3','W3W4F4<br>','65',' ','','',' '"
p1930
aS"'10510PME 400200','PME ','ENGI','NT0588','2',' ',' ',' ','','Y',' '"
p1931
aS"'10510PME 401301','PME ','ENGI','PM0285','1','M5M6M7M8<br>','35',' ','','',' '"
p1932
aS"'10510PME 401302','PME ','ENGI','PM0285','1','T5T6T7T8<br>','35',' ','','',' '"
p1933
aS"'10510PME 401303','PME ','ENGI','PM0285','1','W5W6W7W8<br>','35',' ','','',' '"
p1934
aS"'10510PME 402100','PME ','ENGI','WW0870','3','R2R3R4<br>',' ',' ','','',' '"
p1935
aS"'10510PME 410300','PME ','ENGI','NE0225','3','M3M4R4<br>',' ',' ','','',' '"
p1936
aS"'10510PME 414400','PME ','ENGI','NT0666','3','TaTbTc<br>','60',' ','','',' '"
p1937
aS"'10510PME 416000','PME ','ENGI','PM0150','3','MaMbMc<br>','40',' ','','',' '"
p1938
aS"'10510PME 420900','PME ','ENGI','EE0013','3','T2T3T4<br>',' ',' ','','',' '"
p1939
aS"'10510PME 435100','PME ','ENGI','PM0010','3','M6M7M8<br>',' ',' ','','',' '"
p1940
aS"'10510PME 500000','PME ','ENGI','SS0003','1','R7R8<br>',' ',' ','','',' '"
p1941
aS"'10510PME 510200','PME ','ENGI','NT0488','3','T6T7T8<br>',' ',' ','','',' '"
p1942
aS"'10510PME 510300','PME ','ENGI','NT2017','3','TaTbTc<br>',' ',' ','','',' '"
p1943
aS"'10510PME 511100','PME ','ENGI','PM0021','3','W2W3W4<br>',' ',' ','','',' '"
p1944
aS"'10510PME 511300','PME ','ENGI','AM0025','3','T2T3T4<br>',' ',' ','','',' '"
p1945
aS"'10510PME 512100','PME ','ENGI','PM0023','3','M2M3M4<br>',' ',' ','','',' '"
p1946
aS"'10510PME 513100','PME ','ENGI','PM0204','3','W5W6W7<br>',' ',' ','','',' '"
p1947
aS"'10510PME 514100','PME ','ENGI','NE0115','3','F5F6F7<br>',' ',' ','','',' '"
p1948
aS"'10510PME 520100','PME ','ENGI','WW0106','3','T3T4W4<br>',' ',' ','','',' '"
p1949
aS"'10510PME 520300','PME ','ENGI','EE0066','3','R2R3R4<br>',' ',' ','','',' '"
p1950
aS"'10510PME 523300','PME ','ENGI','PM0269','3','F2F3F4<br>',' ',' ','','',' '"
p1951
aS"'10510PME 526900','PME ','ENGI','PM0278','3','T6T7T8<br>',' ',' ','','',' '"
p1952
aS"'10510PME 534100','PME ','ENGI','PM0270','3','WaWbWc<br>',' ',' ','','',' '"
p1953
aS"'10510PME 534300','PME ','ENGI','PM0019','3','W6W7W8<br>','60',' ','','',' '"
p1954
aS"'10510PME 534500','PME ','ENGI','PM0020','3','W1W2W5<br>',' ',' ','','',' '"
p1955
aS"'10510PME 536000','PME ','ENGI','PM0242','3','T6T7T8<br>',' ',' ','','',' '"
p1956
aS"'10510PME 536500','PME ','ENGI','PM0289','3','T2T3T4<br>',' ',' ','','',' '"
p1957
aS"'10510PME 536800','PME ','ENGI','WW0239','3','M3M4W3<br>',' ',' ','','',' '"
p1958
aS"'10510PME 543500','PME ','ENGI','PM0197','3','M6M7M8<br>',' ',' ','','',' '"
p1959
aS"'10510PME 544100','PME ','ENGI','NT2615','3','T6T7T8<br>',' ',' ','','',' '"
p1960
aS"'10510PME 545900','PME ','ENGI','PM0238','3','T2T3T4<br>',' ',' ','','',' '"
p1961
aS"'10510PME 550400','PME ','ENGI','ME0021','3','W6W7W8<br>',' ',' ','','',' '"
p1962
aS"'10510PME 560200','PME ','ENGI','NT0597','3','T2T3T4<br>',' ',' ','','',' '"
p1963
aS"'10510PME 600000','PME ','ENGI','SS0001','0',' ',' ',' ','','',' '"
p1964
aS"'10510PME 665000','PME ','ENGI','PM0062','3','R2R3R4<br>',' ',' ','','',' '"
p1965
aS"'10510PME 800000','PME ','ENGI','SS0002','0',' ',' ',' ','','',' '"
p1966
aS"'10510QF  100200','QF  ','COTM','CD0173','3','R7R8R9<br>','70',' ','','',' '"
p1967
aS"'10510QF  100401','QF  ','COTM','EC0005','3','F6F7F8<br>','105',' ','','',' '"
p1968
aS"'10510QF  100402','QF  ','COTM','EC0005','3','W7W8W9<br>','45',' ','','',' '"
p1969
aS"'10510QF  200100','QF  ','COTM','CD0019','3','M2R1R2<br>','70',' ','','',' '"
p1970
aS"'10510QF  214101','QF  ','COTM','IE0013','3','T7T8T9<br>','100',' ','','',' '"
p1971
aS"'10510QF  214102','QF  ','COTM','IE0013','3','W6W7W8<br>','100',' ','','',' '"
p1972
aS"'10510QF  214103','QF  ','COTM','IE0013','3','M7M8M9<br>','90',' ','','',' '"
p1973
aS"'10510QF  214400','QF  ','COTM','MA0061','3','M3M4W2<br>','100',' ','','',' '"
p1974
aS"'10510QF  214800','QF  ','COTM','WW0437','3','T5T6R5<br>','90',' ','','',' '"
p1975
aS"'10510QF  215000','QF  ','COTM','MA0099','3','R1R2R3<br>','90',' ','','',' '"
p1976
aS"'10510QF  314800','QF  ','COTM','MA0114','3','T7T8T9<br>','100',' ','','Y',' '"
p1977
aS"'10510QF  320101','QF  ','COTM','QF0015','3','W7W8W9<br>','100',' ','','Y',' '"
p1978
aS"'10510QF  320102','QF  ','COTM','QF0015','3','R6R7R8<br>','100',' ','','Y',' '"
p1979
aS"'10510QF  320103','QF  ','COTM','QF0015','3','W3W4Wn<br>','90',' ','','Y',' '"
p1980
aS"'10510QF  320900','QF  ','COTM','EC0008','3','M3M4W1<br>','60',' ','','',' '"
p1981
aS"'10510QF  321000','QF  ','COTM','NT2619','2','R5R6<br>','100',' ','','','DL'"
p1982
aS"'10510QF  414401','QF  ','COTM','WW0112','3','M6M7M8<br>','60',' ','','Y',' '"
p1983
aS"'10510QF  414402','QF  ','COTM','WW0112','3','T3T4Tn<br>','90',' ','','Y',' '"
p1984
aS"'10510QF  414900','QF  ','COTM','QF0001','3','T6T7T8<br>','50',' ','','',' '"
p1985
aS"'10510QF  440700','QF  ','COTM','EM0104','3','M2M3M4<br>','38',' ','','',' '"
p1986
aS"'10510QF  441500','QF  ','COTM','QF0052','3','W2W3W4<br>','60',' ','','',' '"
p1987
aS"'10510QF  443000','QF  ','COTM','NT1955','3','M5M6M7<br>','60',' ','','',' '"
p1988
aS"'10510QF  443100','QF  ','COTM','NT2079','3','R7R8R9<br>','80',' ','','',' '"
p1989
aS"'10510QF  500100','QF  ','COTM','QF0025','3','T7T8T9<br>','45',' ','','',' '"
p1990
aS"'10510QF  500300','QF  ','COTM','QF0020','3','R7R8R9<br>','40',' ','','',' '"
p1991
aS"'10510QF  510100','QF  ','COTM','SS0003','2','R2R3R4<br>','68',' ','','',' '"
p1992
aS"'10510QF  513000','QF  ','COTM','SS0001','2',' ',' ',' ','','',' '"
p1993
aS"'10510QF  517000','QF  ','COTM','QF0027','3','R6R7R8<br>','45',' ','','',' '"
p1994
aS"'10510QF  520800','QF  ','COTM','TM0012','3','W5W6W7<br>','40',' ','','',' '"
p1995
aS"'10510QF  521400','QF  ','COTM','QF0044','3','T2T3T4<br>','50',' ','','',' '"
p1996
aS"'10510QF  524600','QF  ','COTM','NT1528','3','F3F4Fn<br>','50',' ','','',' '"
p1997
aS"'10510QF  524800','QF  ','COTM','NT1834','2','FnF5<br>','12',' ','','',' '"
p1998
aS"'10510QF  525300','QF  ','COTM','NT2346','3','W6W7W8<br>','12',' ','','',' '"
p1999
aS"'10510QF  525400','QF  ','COTM','NT2361','3','R6R7R8<br>','25',' ','','',' '"
p2000
aS"'10510SLS 564100','SLS ','SCI','NT1434','3','T2T3T4<br>','15',' ','','',' '"
p2001
aS"'10510SLS 564300','SLS ','SCI','NT2107','3','F5F6F7<br>',' ',' ','','',' '"
p2002
aS"'10510SNHC710000','SNHC','EECS','SS0003','0','W6W7<br>',' ',' ','','',' '"
p2003
aS"'10510SNHC741000','SNHC','EECS','NT2132','3','R2R3R4<br>',' ',' ','','',' '"
p2004
aS"'10510SNHC751000','SNHC','EECS','NT2239','3','T6T7T8<br>',' ',' ','','',' '"
p2005
aS"'10510SOC 512000','SOC ','CHS','WW3131','3','F3F4Fn<br>',' ',' ','','',' '"
p2006
aS"'10510SOC 516200','SOC ','CHS','NT2645','2','R8R9<br>',' ',' ','','',' '"
p2007
aS"'10510SOC 517100','SOC ','CHS','SN0022','3','T7T8T9<br>',' ',' ','','',' '"
p2008
aS"'10510SOC 531800','SOC ','CHS','NT2698','3','M6M7M8<br>',' ',' ','','',' '"
p2009
aS"'10510SOC 532000','SOC ','CHS','SN0425','3','F3F4Fn<br>',' ',' ','','',' '"
p2010
aS"'10510SOC 537000','SOC ','CHS','NT1950','3','T7T8T9<br>','12',' ','','',' '"
p2011
aS"'10510SOC 555100','SOC ','CHS','SN0380','3','R2R3R4<br>',' ',' ','','',' '"
p2012
aS"'10510SOC 575600','SOC ','CHS','SN0398','2','W3W4<br>',' ',' ','','',' '"
p2013
aS"'10510SOC 576000','SOC ','CHS','TMP556','2','R6R7<br>',' ',' ','','',' '"
p2014
aS"'10510SOC 578500','SOC ','CHS','WZ2965','3','W7W8W9<br>',' ',' ','','',' '"
p2015
aS"'10510SOC 580100','SOC ','CHS','SN0303','3','M6M7M8<br>',' ',' ','','',' '"
p2016
aS"'10510SOC 580200','SOC ','CHS','SS0072','0','TnT5<br>',' ',' ','','',' '"
p2017
aS"'10510SOC 588900','SOC ','CHS','NT2650','1','M2M3M4M5M6M7W2W3<br>W4W5W6W7F2',' ',' ','','',' '"
p2018
aS"'10510SOC 591100','SOC ','CHS','SN0273','3','F6F7F8<br>',' ',' ','','',' '"
p2019
aS"'10510SOC 700000','SOC ','CHS','SS0001','2',' ',' ',' ','','',' '"
p2020
aS"'10510SOC 800000','SOC ','CHS','SS0002','0',' ',' ',' ','','',' '"
p2021
aS"'10510STAT202000','STAT','SCI','MA0061','3','M7M8M9<br>','60',' ','','',' '"
p2022
aS"'10510STAT262100','STAT','SCI','XZ0686','3','M2W5W6<br>',' ',' ','','',' '"
p2023
aS"'10510STAT387500','STAT','SCI','AM0004','3','T3T4W4<br>',' ',' ','','',' '"
p2024
aS"'10510STAT502000','STAT','SCI','ST0063','3','M2T3T4<br>',' ',' ','','',' '"
p2025
aS"'10510STAT511000','STAT','SCI','AM0004','4','M3M4W3W4<br>',' ',' ','','',' '"
p2026
aS"'10510STAT524000','STAT','SCI','NT1376','3','T6T7T8<br>',' ',' ','','',' '"
p2027
aS"'10510STAT541000','STAT','SCI','AM0014','3','M6M7M8<br>',' ',' ','','',' '"
p2028
aS"'10510STAT556000','STAT','SCI','ST0061','3','W6W7W8<br>',' ',' ','','',' '"
p2029
aS"'10510STAT591000','STAT','SCI','SS0003','1','F2<br>',' ',' ','','',' '"
p2030
aS"'10510STAT592000','STAT','SCI','SS0011','1','F3<br>',' ',' ','','',' '"
p2031
aS"'10510STAT600000','STAT','SCI','SS0001','2',' ',' ',' ','','',' '"
p2032
aS"'10510STAT620000','STAT','SCI','ST0070','3','M3M4Mn<br>',' ',' ','','',' '"
p2033
aS"'10510STAT633000','STAT','SCI','NT2662','3','M7M8M9<br>',' ',' ','','',' '"
p2034
aS"'10510STAT666100','STAT','SCI','NT0936','3','R2R3R4<br>',' ',' ','','',' '"
p2035
aS"'10510STAT691000','STAT','SCI','ST0001','2','R7R8<br>',' ',' ','','',' '"
p2036
aS"'10510STAT800000','STAT','SCI','SS0002','0',' ',' ',' ','','',' '"
p2037
aS"'10510STAU544900','STAU','','ST0044','3','T5T6T7<br>',' ',' ','','',' '"
p2038
aS"'10510STAU545000','STAU','','WW3070','3','T2T3T4<br>',' ',' ','','',' '"
p2039
aS"'10510STAU545400','STAU','','TMP610','3','R2R3R4<br>',' ',' ','','',' '"
p2040
aS"'10510TE  201300','TE  ','','TE0228','2','M5M6<br>','30',' ','','Y',' '"
p2041
aS"'10510TE  202101','TE  ','','TE0003','2','T3T4<br>','30','*6','3','',' '"
p2042
aS"'10510TE  202102','TE  ','','TE0003','2','M3M4<br>','30',' ','','',' '"
p2043
aS"'10510TE  202103','TE  ','','TE0003','2','M7M8<br>','30',' ','','',' '"
p2044
aS"'10510TE  202300','TE  ','','TE0231','2','W3W4<br>','30',' ','','Y',' '"
p2045
aS"'10510TE  202501','TE  ','','TE0262','4','F1F2F3F4<br>','30',' ','','Y',' '"
p2046
aS"'10510TE  202502','TE  ','','TE0262','4','F1F2F3F4<br>','30',' ','','Y',' '"
p2047
aS"'10510TE  202503','TE  ','','TE0262','4','F1F2F3F4<br>','30',' ','','Y',' '"
p2048
aS"'10510TE  203300','TE  ','','TE0302','2','R5R6<br>','30',' ','','Y',' '"
p2049
aS"'10510TE  204100','TE  ','','TE0082','2','W5W6<br>','30',' ','','',' '"
p2050
aS"'10510TE  204200','TE  ','','TE0036','2','R7R8<br>','30',' ','','',' '"
p2051
aS"'10510TE  204300','TE  ','','TE0232','2','M5M6<br>','30',' ','','Y',' '"
p2052
aS"'10510TE  205300','TE  ','','TE0224','2','F5F6<br>','30',' ','','Y',' '"
p2053
aS"'10510TE  205400','TE  ','','TE0011','2','R5R6<br>','30',' ','','',' '"
p2054
aS"'10510TE  206300','TE  ','','TE0233','2','F3F4<br>','30',' ','','Y',' '"
p2055
aS"'10510TE  207300','TE  ','','TE0226','2','F7F8<br>','30',' ','','Y',' '"
p2056
aS"'10510TE  207400','TE  ','','TE0222','2','M3M4<br>','30',' ','','',' '"
p2057
aS"'10510TE  210501','TE  ','','TE0322','2','T7T8<br>','30',' ','','',' '"
p2058
aS"'10510TE  210502','TE  ','','TE0322','2','W1W2<br>','30',' ','','',' '"
p2059
aS"'10510TE  224400','TE  ','','TE0327','2','R3R4<br>','40','*6','3','',' '"
p2060
aS"'10510TE  234400','TE  ','','TE0099','2','W7W8<br>','30',' ','','',' '"
p2061
aS"'10510TE  246400','TE  ','','TE0153','3','R2R3R4<br>','45',' ','','',' '"
p2062
aS"'10510TE  250600','TE  ','','TE0299','2','T5T6<br>','30',' ','','',' '"
p2063
aS"'10510TE  250700','TE  ','','TE0300','2','R7R8<br>','30',' ','','',' '"
p2064
aS"'10510TEX 230500','TEX ','','TG0016','3','F5F6F7<br>','15',' ','','',' '"
p2065
aS"'10510TEX 230600','TEX ','','TG0008','3','WaWbWc<br>','15',' ','','',' '"
p2066
aS"'10510TIGP717000','TIGP','','NT2713','3','W5W6W7<br>',' ',' ','','',' '"
p2067
aS"'10510TIGP717100','TIGP','','TG0006','1','T6T7T8<br>',' ',' ','','',' '"
p2068
aS"'10510TIGP717600','TIGP','','WW1716','2','T3T4<br>',' ',' ','','',' '"
p2069
aS"'10510TIGP718100','TIGP','','SS0003','1','W3W4<br>',' ',' ','','',' '"
p2070
aS"'10510TIGP718200','TIGP','','SS0011','1','<br>',' ',' ','','',' '"
p2071
aS"'10510TIGP718600','TIGP','','NT0682','2','<br>',' ',' ','','',' '"
p2072
aS"'10510TIGP718900','TIGP','','MB0038','4','M3M4R6R7<br>',' ',' ','','',' '"
p2073
aS"'10510TIGP719600','TIGP','','NT2176','4','M5M6R5R6<br>',' ',' ','','',' '"
p2074
aS"'10510TIGP719900','TIGP','','TP0046','3','<br>',' ',' ','','',' '"
p2075
aS"'10510TIGP720100','TIGP','','SS0087','3','T8T9Ta<br>',' ',' ','','',' '"
p2076
aS"'10510TIGP722200','TIGP','','NT1088','2','F3F4<br>',' ',' ','','',' '"
p2077
aS"'10510TIGP723600','TIGP','','NT2153','3','F2F3F4<br>',' ',' ','','',' '"
p2078
aS"'10510TIGP723700','TIGP','','NT2428','3','W2W3W4<br>',' ',' ','','',' '"
p2079
aS"'10510TIGP726400','TIGP','','SS0086','1','T7<br>',' ',' ','','',' '"
p2080
aS"'10510TIGP727100','TIGP','','CH0213','3','W2W3W4<br>',' ',' ','','',' '"
p2081
aS"'10510TIGP730100','TIGP','','TP0009','3','T2T3T4<br>',' ',' ','','',' '"
p2082
aS"'10510TIGP730300','TIGP','','SS0003','1','R7R8<br>',' ',' ','','',' '"
p2083
aS"'10510TIGP730400','TIGP','','SS0074','1',' ',' ',' ','','',' '"
p2084
aS"'10510TIGP730500','TIGP','','SS0073','1','R5R6<br>',' ',' ','','',' '"
p2085
aS"'10510TIGP730800','TIGP','','NT2425','3','F5F6F7F8<br>',' ',' ','','',' '"
p2086
aS"'10510TIGP731000','TIGP','','CD0004','2','F3F4<br>',' ',' ','','',' '"
p2087
aS"'10510TIGP731100','TIGP','','NT2130','3','R2R3R4<br>',' ',' ','','',' '"
p2088
aS"'10510TIGP740101','TIGP','','NT1705','3','F5F6F7<br>',' ',' ','','',' '"
p2089
aS"'10510TIGP740102','TIGP','','NT1706','3','T3R5R6<br>',' ',' ','','',' '"
p2090
aS"'10510TIGP741300','TIGP','','EE0097','3','T6T7T8<br>',' ',' ','','',' '"
p2091
aS"'10510TIGP743500','TIGP','','PH0020','3','M6M7M8<br>',' ',' ','','',' '"
p2092
aS"'10510TIGP744100','TIGP','','PH0034','3','R6R7R8<br>',' ',' ','','',' '"
p2093
aS"'10510TIGP746300','TIGP','','TP0036','3','T2T3T4<br>',' ',' ','','',' '"
p2094
aS"'10510TIGP748400','TIGP','','TMP544','2','R6R7<br>',' ',' ','','',' '"
p2095
aS"'10510TIGP749100','TIGP','','SS0003','1','W6W7<br>',' ',' ','','',' '"
p2096
aS"'10510TIGP749300','TIGP','','SS0011','0','<br>',' ',' ','','',' '"
p2097
aS"'10510TL  500000','TL  ','CHS','SS0001','2',' ',' ',' ','','',' '"
p2098
aS"'10510TL  500100','TL  ','CHS','TL0001','3','T6T7T8<br>',' ',' ','','',' '"
p2099
aS"'10510TL  501000','TL  ','CHS','TL0005','0','W6W7<br>',' ',' ','','',' '"
p2100
aS"'10510TL  516700','TL  ','CHS','NT1255','3','W2W3W4<br>',' ',' ','','',' '"
p2101
aS"'10510TL  521200','TL  ','CHS','TL0041','0','M2M3M4<br>',' ',' ','','',' '"
p2102
aS"'10510TL  550100','TL  ','CHS','TL0065','3','RaRbRc<br>',' ',' ','','',' '"
p2103
aS"'10510TL  550200','TL  ','CHS','TL0067','3','F2F3F4<br>',' ',' ','','',' '"
p2104
aS"'10510TL  560600','TL  ','CHS','NT1211','3','T3T4Tn<br>',' ',' ','','',' '"
p2105
aS"'10510TL  700000','TL  ','CHS','SS0002','0',' ',' ',' ','','',' '"
p2106
aS"'10510TL  700100','TL  ','CHS','NT1008','3','W7W8W9<br>',' ',' ','','',' '"
p2107
aS"'10510TM  200201','TM  ','COTM','WW0142','3','T7T8T9<br>','50','*3','3','',' '"
p2108
aS"'10510TM  200202','TM  ','COTM','WW0142','3','W7W8W9<br>','50','*3','3','',' '"
p2109
aS"'10510TM  200203','TM  ','COTM','WW0142','3','R7R8R9<br>','50','*3','3','',' '"
p2110
aS"'10510TM  400500','TM  ','COTM','WW0539','3','F3F4Fn<br>','40',' ','','',' '"
p2111
aS"'10510TM  500000','TM  ','COTM','SS0001','2',' ',' ',' ','','',' '"
p2112
aS"'10510TM  500300','TM  ','COTM','TM0003','3','T7T8T9<br>','50',' ','','',' '"
p2113
aS"'10510TM  500700','TM  ','COTM','FL0086','3','W3W4Wn<br>','30',' ','','',' '"
p2114
aS"'10510TM  501300','TM  ','COTM','TM0006','3','F2F3F4<br>','0',' ','','',' '"
p2115
aS"'10510TM  502300','TM  ','COTM','SS0020','1','W7W8<br>','40',' ','','',' '"
p2116
aS"'10510TM  504700','TM  ','COTM','TM0033','3','R2R3R4<br>','55',' ','','',' '"
p2117
aS"'10510TM  505400','TM  ','COTM','TM0038','3','M6M7M8<br>','50',' ','','',' '"
p2118
aS"'10510TM  510800','TM  ','COTM','LA0021','3','T3T4Tn<br>','30',' ','','',' '"
p2119
aS"'10510TM  700000','TM  ','COTM','SS0002','0',' ',' ',' ','','',' '"
p2120
aS"'10510TM  700100','TM  ','COTM','TM0062','3','T2T3T4<br>',' ',' ','','',' '"
p2121
aS"'10510TM  700300','TM  ','COTM','TM0063','3','F6F7F8<br>',' ',' ','','',' '"
p2122
aS"'10510TM  700700','TM  ','COTM','TM0075','1','Tn<br>',' ',' ','','',' '"
p2123
aS"'10510TM  701000','TM  ','COTM','WW3968','3','M7M8M9<br>',' ',' ','','',' '"
p2124
aS"'10510UPMT300100','UPMT','COTM','TM0101','1','Rb<br>','30',' ','','',' '"
p2125
aS"'10510ZY  100001','ZY  ','','ZY1175','0',' ','10',' ','','',' '"
p2126
aS"'10510ZY  100002','ZY  ','','ZY1147','0',' ','12',' ','','',' '"
p2127
aS"'10510ZY  100003','ZY  ','','ZY1121','0',' ','10',' ','','',' '"
p2128
aS"'10510ZY  100004','ZY  ','','ZY1187','0',' ','23',' ','','',' '"
p2129
aS"'10510ZY  100005','ZY  ','','ZY1176','0',' ','12',' ','','',' '"
p2130
aS"'10510ZY  100006','ZY  ','','ZY1213','0',' ','15',' ','','',' '"
p2131
aS"'10510ZY  100007','ZY  ','','ZY1054','0',' ','10',' ','','',' '"
p2132
aS"'10510ZY  100008','ZY  ','','ZY1144','0',' ','12',' ','','',' '"
p2133
aS"'10510ZY  100009','ZY  ','','ZY1240','0',' ','15',' ','','',' '"
p2134
aS"'10510ZY  100010','ZY  ','','ZY1232','0',' ','12',' ','','',' '"
p2135
aS"'10510ZY  100011','ZY  ','','ZY1004','0',' ','10',' ','','',' '"
p2136
aS"'10510ZY  100012','ZY  ','','ZY1231','0',' ','15',' ','','',' '"
p2137
aS"'10510ZY  100013','ZY  ','','ZY1177','0',' ','10',' ','','',' '"
p2138
aS"'10510ZY  100014','ZY  ','','ZY1015','0',' ','10',' ','','',' '"
p2139
aS"'10510ZY  100015','ZY  ','','ZY1180','0',' ','8',' ','','',' '"
p2140
aS"'10510ZY  100016','ZY  ','','ZY1062','0',' ','20',' ','','',' '"
p2141
aS"'10510ZY  100017','ZY  ','','ZY1226','0',' ','8',' ','','',' '"
p2142
aS"'10510ZY  100018','ZY  ','','ZY1192','0',' ','15',' ','','',' '"
p2143
aS"'10510ZY  100019','ZY  ','','ZY1094','0',' ','15',' ','','',' '"
p2144
aS"'10510ZY  100020','ZY  ','','ZY1214','0',' ','6',' ','','',' '"
p2145
aS"'10510ZY  100021','ZY  ','','ZY1215','0',' ','12',' ','','',' '"
p2146
aS"'10510ZY  100022','ZY  ','','ZY1227','0',' ','13',' ','','',' '"
p2147
aS"'10510ZY  100023','ZY  ','','ZY1233','0',' ','10',' ','','',' '"
p2148
aS"'10510ZY  100024','ZY  ','','ZY1241','0',' ','4',' ','','',' '"
p2149
aS"'10510ZY  100025','ZY  ','','ZY1242','0',' ','10',' ','','',' '"
p2150
aS"'10510ZY  100026','ZY  ','','TMP567','0',' ','30',' ','','',' '"
p2151
aS"'10510ZY  100027','ZY  ','','ZY1169','0',' ','10',' ','','',' '"
p2152
aS"'10510ZY  100028','ZY  ','','ZY1135','0',' ','10',' ','','',' '"
p2153
aS"'10510ZY  100029','ZY  ','','ZY1136','0',' ','10',' ','','',' '"
p2154
aS"'10510ZY  100030','ZY  ','','ZY1133','0',' ','10',' ','','',' '"
p2155
aS"'10510ZY  100031','ZY  ','','ZY1138','0',' ','10',' ','','',' '"
p2156
aS"'10510ZY  100032','ZY  ','','ZY1182','0',' ','10',' ','','',' '"
p2157
aS"'10510ZY  100033','ZY  ','','ZY1229','0',' ','10',' ','','',' '"
p2158
aS"'10510ZY  100034','ZY  ','','ZY1207','0',' ','10',' ','','',' '"
p2159
aS"'10510ZY  100035','ZY  ','','ZY1243','0',' ','10',' ','','',' '"
p2160
aS"'10510ZY  100037','ZY  ','','ZY1210','0',' ','10',' ','','',' '"
p2161
aS"'10510ZY  100039','ZY  ','','ZY1184','0',' ','10',' ','','',' '"
p2162
aS"'10510ZY  100040','ZY  ','','ZY1238','0',' ','10',' ','','',' '"
p2163
aS"'10510ZY  100041','ZY  ','','ZY1244','0',' ','10',' ','','',' '"
p2164
aS"'10510ZY  100042','ZY  ','','ZY1237','0',' ','10',' ','','',' '"
p2165
aS"'10510ZY  100044','ZY  ','','ZY1097','0',' ','10',' ','','',' '"
p2166
aS"'10510ZY  100045','ZY  ','','ZY1222','0',' ','15',' ','','',' '"
p2167
aS"'10510ZY  100201','ZY  ','','ZY1217','0','Fn<br>',' ',' ','','',' '"
p2168
aS"'10510ZY  100202','ZY  ','','ZY1217','0','Fn<br>',' ',' ','','',' '"
p2169
aS"'10510ZY  100203','ZY  ','','ZY1217','0','Tn<br>',' ',' ','','',' '"
p2170
aS"'10510ZY  100204','ZY  ','','ZY1217','0',' ',' ',' ','','',' '"
p2171
aS"'10510ZY  100205','ZY  ','','ZY1217','0',' ',' ',' ','','',' '"
p2172
aS"'10510ZY  100206','ZY  ','','ZY1217','0',' ',' ',' ','','',' '"
p2173
aS"'10510ZY  100207','ZY  ','','ZY1217','0',' ',' ',' ','','',' '"
p2174
aS"'10510ZY  100208','ZY  ','','ZY1217','0',' ',' ',' ','','',' '"
p2175
aS"'10510ZY  100209','ZY  ','','ZY1217','0',' ',' ',' ','','',' '"
p2176
aS"'10510ZY  100210','ZY  ','','ZY1217','0',' ',' ',' ','','',' '"
p2177
aS"'10510ZY  100211','ZY  ','','ZY1217','0',' ',' ',' ','','',' '"
p2178
aS"'10510ZY  100212','ZY  ','','ZY1217','0',' ',' ',' ','','',' '"
p2179
aS"'10510ZY  100213','ZY  ','','ZY1217','0',' ',' ',' ','','',' '"
p2180
aS"'10510ZY  100214','ZY  ','','ZY1217','0',' ',' ',' ','','',' '"
p2181
aS"'10510ZY  100215','ZY  ','','ZY1217','0',' ',' ',' ','','',' '"
p2182
aS"'10510ZY  100216','ZY  ','','ZY1217','0',' ',' ',' ','','',' '"
p2183
aS"'10510ZY  100217','ZY  ','','ZY1217','0','M2<br>',' ',' ','','',' '"
p2184
aS"'10510ZY  100218','ZY  ','','ZY1217','0',' ',' ',' ','','',' '"
p2185
aS"'10510ZY  100219','ZY  ','','ZY1217','0',' ',' ',' ','','',' '"
p2186
aS"'10510ZY  100220','ZY  ','','ZY1217','0',' ',' ',' ','','',' '"
p2187
aS"'10510ZY  100221','ZY  ','','ZY1217','0',' ',' ',' ','','',' '"
p2188
aS"'10510ZY  100222','ZY  ','','ZY1217','0',' ',' ',' ','','',' '"
p2189
aS"'10510ZY  100223','ZY  ','','ZY1217','0',' ',' ',' ','','',' '"
p2190
aS"'10510ZY  100224','ZY  ','','ZY1217','0',' ',' ',' ','','',' '"
p2191
aS"'10510ZY  100225','ZY  ','','ZY1217','0',' ',' ',' ','','',' '"
p2192
aS"'10510ZY  100226','ZY  ','','ZY1217','0',' ',' ',' ','','',' '"
p2193
aS"'10510ZY  100227','ZY  ','','ZY1217','0',' ',' ',' ','','',' '"
p2194
aS"'10510ZY  100228','ZY  ','','ZY1217','0',' ',' ',' ','','',' '"
p2195
a.